 FLWSim_sfun

 Timestamp is 5dfad7f4 (Wed Dec 18 20:52:52 2019)

 Preferred load address is 0000000180000000

 Start         Length     Name                   Class
 0001:00000000 00064030H .text$mn                CODE
 0001:00064030 00000012H .text$mn$00             CODE
 0001:00064042 00000081H .text$x                 CODE
 0002:00000000 00000570H .idata$5                DATA
 0002:00000570 00000010H .00cfg                  DATA
 0002:00000580 00000008H .CRT$XCA                DATA
 0002:00000588 00000008H .CRT$XCZ                DATA
 0002:00000590 00000008H .CRT$XIA                DATA
 0002:00000598 00000008H .CRT$XIZ                DATA
 0002:000005a0 00000008H .CRT$XPA                DATA
 0002:000005a8 00000008H .CRT$XPZ                DATA
 0002:000005b0 00000008H .CRT$XTA                DATA
 0002:000005b8 00000008H .CRT$XTZ                DATA
 0002:000005c0 00000394H .rdata                  DATA
 0002:00000954 0000022cH .rdata$zzzdbg           DATA
 0002:00000b80 00000008H .rtc$IAA                DATA
 0002:00000b88 00000008H .rtc$IZZ                DATA
 0002:00000b90 00000008H .rtc$TAA                DATA
 0002:00000b98 00000008H .rtc$TZZ                DATA
 0002:00000ba0 00001950H .xdata                  DATA
 0002:000024f0 00000078H .edata                  DATA
 0002:00002568 00000118H .idata$2                DATA
 0002:00002680 00000018H .idata$3                DATA
 0002:00002698 00000570H .idata$4                DATA
 0002:00002c08 00000feaH .idata$6                DATA
 0003:00000000 00007880H .data                   DATA
 0003:00007880 00001650H .bss                    DATA
 0004:00000000 00001f2cH .pdata                  DATA
 0005:00000000 00000018H .gfids$y                DATA

  Address         Publics by Value              Rva+Base               Lib:Object

 0000:00000000       __guard_fids_table         0000000000000000     <absolute>
 0000:00000000       __guard_fids_count         0000000000000000     <absolute>
 0000:00000000       __dynamic_value_reloc_table 0000000000000000     <absolute>
 0000:00000000       ___safe_se_handler_count   0000000000000000     <absolute>
 0000:00000000       __guard_longjmp_count      0000000000000000     <absolute>
 0000:00000000       ___safe_se_handler_table   0000000000000000     <absolute>
 0000:00000000       __guard_iat_count          0000000000000000     <absolute>
 0000:00000000       __guard_iat_table          0000000000000000     <absolute>
 0000:00000000       __guard_longjmp_table      0000000000000000     <absolute>
 0000:00000100       __guard_flags              0000000000000100     <absolute>
 0000:00000000       __ImageBase                0000000180000000     <linker-defined>
 0001:00000000       FLWSim_initializer         0000000180001000 f   FLWSim_sfun.obj
 0001:00000010       FLWSim_terminator          0000000180001010 f   FLWSim_sfun.obj
 0001:00000020       load_FLWSim_optimization_info 0000000180001020 f   FLWSim_sfun.obj
 0001:000000d0       unload_FLWSim_optimization_info 00000001800010d0 f   FLWSim_sfun.obj
 0001:00000100       sf_FLWSim_method_dispatcher 0000000180001100 f   FLWSim_sfun.obj
 0001:00000190       sf_FLWSim_process_check_sum_call 0000000180001190 f   FLWSim_sfun.obj
 0001:000006b0       sf_FLWSim_autoinheritance_info 00000001800016b0 f   FLWSim_sfun.obj
 0001:00000960       sf_FLWSim_get_eml_resolved_functions_info 0000000180001960 f   FLWSim_sfun.obj
 0001:00000bf0       sf_FLWSim_third_party_uses_info 0000000180001bf0 f   FLWSim_sfun.obj
 0001:00000e30       sf_FLWSim_jit_fallback_info 0000000180001e30 f   FLWSim_sfun.obj
 0001:00001070       sf_FLWSim_updateBuildInfo_args_info 0000000180002070 f   FLWSim_sfun.obj
 0001:000012b0       FLWSim_debug_initialize    00000001800022b0 f   FLWSim_sfun.obj
 0001:00001330       FLWSim_register_exported_symbols 0000000180002330 f   FLWSim_sfun.obj
 0001:00001340       sf_c1_FLWSim_get_eml_resolved_functions_info 0000000180002340 f   c1_FLWSim.obj
 0001:000013e0       sf_c1_FLWSim_get_check_sum 00000001800023e0 f   c1_FLWSim.obj
 0001:000014b0       c1_FLWSim_method_dispatcher 00000001800024b0 f   c1_FLWSim.obj
 0001:00006a30       sf_c1_FLWSim_get_post_codegen_info 0000000180007a30 f   c1_FLWSim.obj
 0001:00006b00       sf_c1_FLWSim_get_autoinheritance_info 0000000180007b00 f   c1_FLWSim.obj
 0001:00007250       sf_c1_FLWSim_third_party_uses_info 0000000180008250 f   c1_FLWSim.obj
 0001:00007280       sf_c1_FLWSim_jit_fallback_info 0000000180008280 f   c1_FLWSim.obj
 0001:00007410       sf_c1_FLWSim_updateBuildInfo_args_info 0000000180008410 f   c1_FLWSim.obj
 0001:000080a0       sf_c2_FLWSim_get_eml_resolved_functions_info 00000001800090a0 f   c2_FLWSim.obj
 0001:00008150       sf_c2_FLWSim_get_check_sum 0000000180009150 f   c2_FLWSim.obj
 0001:00008220       c2_FLWSim_method_dispatcher 0000000180009220 f   c2_FLWSim.obj
 0001:0000f280       sf_c2_FLWSim_get_post_codegen_info 0000000180010280 f   c2_FLWSim.obj
 0001:0000f350       sf_c2_FLWSim_get_autoinheritance_info 0000000180010350 f   c2_FLWSim.obj
 0001:0000faa0       sf_c2_FLWSim_third_party_uses_info 0000000180010aa0 f   c2_FLWSim.obj
 0001:0000fad0       sf_c2_FLWSim_jit_fallback_info 0000000180010ad0 f   c2_FLWSim.obj
 0001:0000fc60       sf_c2_FLWSim_updateBuildInfo_args_info 0000000180010c60 f   c2_FLWSim.obj
 0001:000109a0       sf_c3_FLWSim_get_eml_resolved_functions_info 00000001800119a0 f   c3_FLWSim.obj
 0001:00010a70       sf_c3_FLWSim_get_check_sum 0000000180011a70 f   c3_FLWSim.obj
 0001:00010b40       c3_FLWSim_method_dispatcher 0000000180011b40 f   c3_FLWSim.obj
 0001:0001fc00       sf_c3_FLWSim_get_post_codegen_info 0000000180020c00 f   c3_FLWSim.obj
 0001:0001fcd0       sf_c3_FLWSim_get_autoinheritance_info 0000000180020cd0 f   c3_FLWSim.obj
 0001:00020400       sf_c3_FLWSim_third_party_uses_info 0000000180021400 f   c3_FLWSim.obj
 0001:00020450       sf_c3_FLWSim_jit_fallback_info 0000000180021450 f   c3_FLWSim.obj
 0001:000205e0       sf_c3_FLWSim_updateBuildInfo_args_info 00000001800215e0 f   c3_FLWSim.obj
 0001:00021320       mexFunction                0000000180022320 f   FLWSim_sfun_registry.obj
 0001:000238e0       _ssSetInputPortDirectFeedThroughFcn 00000001800248e0 f   FLWSim_sfun_registry.obj
 0001:00023a50       _ssGetInputPortSignalPtrsFcn 0000000180024a50 f   FLWSim_sfun_registry.obj
 0001:00023de0       _ssGetInputPortSignalFcn   0000000180024de0 f   FLWSim_sfun_registry.obj
 0001:00024170       _ssSetInputPortReusableFcn 0000000180025170 f   FLWSim_sfun_registry.obj
 0001:00024270       _ssSetOutputPortReusableFcn 0000000180025270 f   FLWSim_sfun_registry.obj
 0001:00024370       _ssSetSymbolicDimsSupport  0000000180025370 f   FLWSim_sfun_registry.obj
 0001:000243e0       _ssRegisterSymbolicDimsExpr 00000001800253e0 f   FLWSim_sfun_registry.obj
 0001:00024460       _ssRegisterSymbolicDims    0000000180025460 f   FLWSim_sfun_registry.obj
 0001:00024500       _ssRegisterSymbolicDimsString 0000000180025500 f   FLWSim_sfun_registry.obj
 0001:00024580       _ssRegisterSymbolicDimsIntValue 0000000180025580 f   FLWSim_sfun_registry.obj
 0001:000245f0       _ssRegisterSymbolicDimsPlus 00000001800255f0 f   FLWSim_sfun_registry.obj
 0001:00024670       _ssRegisterSymbolicDimsMinus 0000000180025670 f   FLWSim_sfun_registry.obj
 0001:000246f0       _ssRegisterSymbolicDimsMultiply 00000001800256f0 f   FLWSim_sfun_registry.obj
 0001:00024770       _ssRegisterSymbolicDimsDivide 0000000180025770 f   FLWSim_sfun_registry.obj
 0001:000247f0       _ssGetNumSymbolicDims      00000001800257f0 f   FLWSim_sfun_registry.obj
 0001:00024860       _ssGetSymbolicDim          0000000180025860 f   FLWSim_sfun_registry.obj
 0001:000248e0       _ssSetInputPortSymbolicDimsId 00000001800258e0 f   FLWSim_sfun_registry.obj
 0001:00024950       _ssGetCompInputPortSymbolicDimsId 0000000180025950 f   FLWSim_sfun_registry.obj
 0001:000249c0       _ssSetCompInputPortSymbolicDimsId 00000001800259c0 f   FLWSim_sfun_registry.obj
 0001:00024a30       _ssSetOutputPortSymbolicDimsId 0000000180025a30 f   FLWSim_sfun_registry.obj
 0001:00024aa0       _ssGetCompOutputPortSymbolicDimsId 0000000180025aa0 f   FLWSim_sfun_registry.obj
 0001:00024b10       _ssSetCompOutputPortSymbolicDimsId 0000000180025b10 f   FLWSim_sfun_registry.obj
 0001:00024b80       _ssSetCompDWorkSymbolicDimsId 0000000180025b80 f   FLWSim_sfun_registry.obj
 0001:00024bf0       ssGetIsZeroCrossControlDisabled 0000000180025bf0 f   FLWSim_sfun_registry.obj
 0001:00024c60       ssSetIsInputPortUsedForContZcSignal 0000000180025c60 f   FLWSim_sfun_registry.obj
 0001:00024cd0       ssSetZcSignalIsZcElementDisc 0000000180025cd0 f   FLWSim_sfun_registry.obj
 0001:00024d80       ssSetZcSignalName          0000000180025d80 f   FLWSim_sfun_registry.obj
 0001:00024df0       ssSetZcSignalWidth         0000000180025df0 f   FLWSim_sfun_registry.obj
 0001:00024e60       ssSetZcSignalZcEventType   0000000180025e60 f   FLWSim_sfun_registry.obj
 0001:00024ed0       ssSetZcSignalType          0000000180025ed0 f   FLWSim_sfun_registry.obj
 0001:00024f40       ssSetZcSignalZcTol         0000000180025f40 f   FLWSim_sfun_registry.obj
 0001:00024fb0       ssSetZcSignalNeedsEventNotification 0000000180025fb0 f   FLWSim_sfun_registry.obj
 0001:00025020       ssCreateAndAddZcSignalInfo 0000000180026020 f   FLWSim_sfun_registry.obj
 0001:00025090       ssCloneAndAddZcSignalInfo  0000000180026090 f   FLWSim_sfun_registry.obj
 0001:00025100       ssGetNumZcSignals          0000000180026100 f   FLWSim_sfun_registry.obj
 0001:00025170       ssGetZcSignalVector        0000000180026170 f   FLWSim_sfun_registry.obj
 0001:000251e0       ssGetZcSignalName          00000001800261e0 f   FLWSim_sfun_registry.obj
 0001:00025250       ssGetZcSignalWidth         0000000180026250 f   FLWSim_sfun_registry.obj
 0001:000252c0       ssGetZcSignalZcEventType   00000001800262c0 f   FLWSim_sfun_registry.obj
 0001:00025330       ssGetZcSignalZcEvents      0000000180026330 f   FLWSim_sfun_registry.obj
 0001:000253a0       ssGetZcSignalType          00000001800263a0 f   FLWSim_sfun_registry.obj
 0001:00025410       ssGetZcSignalZcTol         0000000180026410 f   FLWSim_sfun_registry.obj
 0001:00025490       ssGetZcSignalNeedsEventNotification 0000000180026490 f   FLWSim_sfun_registry.obj
 0001:00025500       ssGetZcSignalIsZcElementDisc 0000000180026500 f   FLWSim_sfun_registry.obj
 0001:000255a0       ssGetIsInputPortElementContinuous 00000001800265a0 f   FLWSim_sfun_registry.obj
 0001:00025640       _ssSetIWorkValueFcn        0000000180026640 f   FLWSim_sfun_registry.obj
 0001:000256c0       _ssGetIWorkValueFcn        00000001800266c0 f   FLWSim_sfun_registry.obj
 0001:00025730       _ssSetRWorkValueFcn        0000000180026730 f   FLWSim_sfun_registry.obj
 0001:000257b0       _ssGetRWorkValueFcn        00000001800267b0 f   FLWSim_sfun_registry.obj
 0001:00025820       _ssSetPWorkValueFcn        0000000180026820 f   FLWSim_sfun_registry.obj
 0001:000258a0       _ssGetPWorkValueFcn        00000001800268a0 f   FLWSim_sfun_registry.obj
 0001:00025910       ssGetDTypeIdFromMxArray    0000000180026910 f   FLWSim_sfun_registry.obj
 0001:00025a30       ssWriteRTWStr              0000000180026a30 f   FLWSim_sfun_registry.obj
 0001:00025a90       ssWriteRTWNameValuePair    0000000180026a90 f   FLWSim_sfun_registry.obj
 0001:00025f90       ssWriteRTWParamSettings    0000000180026f90 f   FLWSim_sfun_registry.obj
 0001:00026680       ssWriteRTWParameters       0000000180027680 f   FLWSim_sfun_registry.obj
 0001:00026c40       ssWriteRTWWorkVect         0000000180027c40 f   FLWSim_sfun_registry.obj
 0001:000271a0       ssWriteRTWMxVectParam      00000001800281a0 f   FLWSim_sfun_registry.obj
 0001:00027220       ssWriteRTWMx2dMatParam     0000000180028220 f   FLWSim_sfun_registry.obj
 0001:000272b0       _ssSetInputPortMatrixDimensions 00000001800282b0 f   FLWSim_sfun_registry.obj
 0001:000273d0       _ssSetOutputPortMatrixDimensions 00000001800283d0 f   FLWSim_sfun_registry.obj
 0001:000274f0       _ssSetInputPortVectorDimension 00000001800284f0 f   FLWSim_sfun_registry.obj
 0001:000275a0       _ssSetOutputPortVectorDimension 00000001800285a0 f   FLWSim_sfun_registry.obj
 0001:00027650       ssIsRunTimeParamTunable    0000000180028650 f   FLWSim_sfun_registry.obj
 0001:000276c0       ssGetSFuncBlockHandle      00000001800286c0 f   FLWSim_sfun_registry.obj
 0001:00027730       _ssGetCurrentInputPortWidth 0000000180028730 f   FLWSim_sfun_registry.obj
 0001:00027850       _ssGetCurrentOutputPortWidth 0000000180028850 f   FLWSim_sfun_registry.obj
 0001:00027970       _ssGetCallSystemNumFcnCallDestinations 0000000180028970 f   FLWSim_sfun_registry.obj
 0001:000279e0       ssGetParameterTuningCompliance 00000001800289e0 f   FLWSim_sfun_registry.obj
 0001:00027a50       ssWarning                  0000000180028a50 f   FLWSim_sfun_registry.obj
 0001:00027b40       _ssGetAbsTol               0000000180028b40 f   FLWSim_sfun_registry.obj
 0001:00027bb0       _ssSetStateAbsTol          0000000180028bb0 f   FLWSim_sfun_registry.obj
 0001:00027c90       sf_process_check_sum_call  0000000180028c90 f   FLWSim_sfun_registry.obj
 0001:00027ce0       sf_process_autoinheritance_call 0000000180028ce0 f   FLWSim_sfun_registry.obj
 0001:00027f10       sf_process_get_third_party_uses_info_call 0000000180028f10 f   FLWSim_sfun_registry.obj
 0001:00028140       sf_process_get_jit_fallback_info_call 0000000180029140 f   FLWSim_sfun_registry.obj
 0001:00028370       sf_process_get_updateBuildInfo_args_info_call 0000000180029370 f   FLWSim_sfun_registry.obj
 0001:000285a0       sf_process_get_eml_resolved_functions_info_call 00000001800295a0 f   FLWSim_sfun_registry.obj
 0001:000287d0       sf_mex_unlock_call         00000001800297d0 f   FLWSim_sfun_registry.obj
 0001:00028a70       sf_machine_global_initializer_called 0000000180029a70 f   FLWSim_sfun_registry.obj
 0001:00028aa0       sf_machine_global_method_dispatcher 0000000180029aa0 f   FLWSim_sfun_registry.obj
 0001:00028b00       sf_machine_global_terminator 0000000180029b00 f   FLWSim_sfun_registry.obj
 0001:00028b50       sf_register_machine_exported_symbols 0000000180029b50 f   FLWSim_sfun_registry.obj
 0001:00028b70       callCustomFcn              0000000180029b70 f   FLWSim_sfun_registry.obj
 0001:00028b80       sf_machine_global_initializer 0000000180029b80 f   FLWSim_sfun_registry.obj
 0001:00028c00       mdlGetSimState             0000000180029c00 f   FLWSim_sfun_registry.obj
 0001:00028c40       mdlSetSimState             0000000180029c40 f   FLWSim_sfun_registry.obj
 0001:000294b0       ProcessMexSfunctionEveryCall 000000018002a4b0 f   FLWSim_sfun_registry.obj
 0001:0002a510       __local_stdio_printf_options 000000018002b510 f i FLWSim_sfun_registry.obj
 0001:0002a520       _vsnprintf_l               000000018002b520 f i FLWSim_sfun_registry.obj
 0001:0002a5a0       _vsprintf_l                000000018002b5a0 f i FLWSim_sfun_registry.obj
 0001:0002a5f0       sprintf                    000000018002b5f0 f i FLWSim_sfun_registry.obj
 0001:0002a640       mexfilerequiredapiversion  000000018002b640 f   c_mexapi_version.obj
 0001:0002a670       CoriolisTerm_src           000000018002b670 f   CoriolisTerm_src.obj
 0001:00033200       Cos                        0000000180034200 f i CoriolisTerm_src.obj
 0001:00033220       Power                      0000000180034220 f i CoriolisTerm_src.obj
 0001:00033250       Sin                        0000000180034250 f i CoriolisTerm_src.obj
 0001:00033270       GravityVector_src          0000000180034270 f   GravityVector_src.obj
 0001:00033a20       InertiaMatrix_src          0000000180034a20 f   InertiaMatrix_src.obj
 0001:00035b90       AMBody_LeftShin_src        0000000180036b90 f   AMBody_LeftShin_src.obj
 0001:00035c80       AMBody_LeftThigh_src       0000000180036c80 f   AMBody_LeftThigh_src.obj
 0001:00035d50       AMBody_RightShin_src       0000000180036d50 f   AMBody_RightShin_src.obj
 0001:00035e40       AMBody_RightThigh_src      0000000180036e40 f   AMBody_RightThigh_src.obj
 0001:00035f10       AMBody_torso_src           0000000180036f10 f   AMBody_torso_src.obj
 0001:00035fd0       AMWorld_LeftShin_src       0000000180036fd0 f   AMWorld_LeftShin_src.obj
 0001:000360c0       AMWorld_LeftThigh_src      00000001800370c0 f   AMWorld_LeftThigh_src.obj
 0001:00036190       AMWorld_RightShin_src      0000000180037190 f   AMWorld_RightShin_src.obj
 0001:00036280       AMWorld_RightThigh_src     0000000180037280 f   AMWorld_RightThigh_src.obj
 0001:00036350       AMWorld_torso_src          0000000180037350 f   AMWorld_torso_src.obj
 0001:00036410       dJb_Head_src               0000000180037410 f   dJb_Head_src.obj
 0001:000368b0       dJb_LeftHip_src            00000001800378b0 f   dJb_LeftHip_src.obj
 0001:00036f60       dJb_LeftKnee_src           0000000180037f60 f   dJb_LeftKnee_src.obj
 0001:00037bd0       dJb_LeftShin_src           0000000180038bd0 f   dJb_LeftShin_src.obj
 0001:00038a90       dJb_LeftThigh_src          0000000180039a90 f   dJb_LeftThigh_src.obj
 0001:00039140       dJb_LeftToe_src            000000018003a140 f   dJb_LeftToe_src.obj
 0001:0003a010       dJb_RightHip_src           000000018003b010 f   dJb_RightHip_src.obj
 0001:0003a6c0       dJb_RightKnee_src          000000018003b6c0 f   dJb_RightKnee_src.obj
 0001:0003b330       dJb_RightShin_src          000000018003c330 f   dJb_RightShin_src.obj
 0001:0003c1f0       dJb_RightThigh_src         000000018003d1f0 f   dJb_RightThigh_src.obj
 0001:0003c8a0       dJb_RightToe_src           000000018003d8a0 f   dJb_RightToe_src.obj
 0001:0003d770       dJb_torso_src              000000018003e770 f   dJb_torso_src.obj
 0001:0003dc10       dJp_Head_src               000000018003ec10 f   dJp_Head_src.obj
 0001:0003deb0       dJp_LeftHip_src            000000018003eeb0 f   dJp_LeftHip_src.obj
 0001:0003e0d0       dJp_LeftKnee_src           000000018003f0d0 f   dJp_LeftKnee_src.obj
 0001:0003eb10       dJp_LeftShin_src           000000018003fb10 f   dJp_LeftShin_src.obj
 0001:0003f550       dJp_LeftThigh_src          0000000180040550 f   dJp_LeftThigh_src.obj
 0001:0003f9c0       dJp_LeftToe_src            00000001800409c0 f   dJp_LeftToe_src.obj
 0001:00040400       dJp_RightHip_src           0000000180041400 f   dJp_RightHip_src.obj
 0001:00040620       dJp_RightKnee_src          0000000180041620 f   dJp_RightKnee_src.obj
 0001:00041060       dJp_RightShin_src          0000000180042060 f   dJp_RightShin_src.obj
 0001:00041aa0       dJp_RightThigh_src         0000000180042aa0 f   dJp_RightThigh_src.obj
 0001:00041f10       dJp_RightToe_src           0000000180042f10 f   dJp_RightToe_src.obj
 0001:00042950       dJp_torso_src              0000000180043950 f   dJp_torso_src.obj
 0001:00042bf0       dJs_Head_src               0000000180043bf0 f   dJs_Head_src.obj
 0001:00043010       dJs_LeftHip_src            0000000180044010 f   dJs_LeftHip_src.obj
 0001:00043450       dJs_LeftKnee_src           0000000180044450 f   dJs_LeftKnee_src.obj
 0001:00043ae0       dJs_LeftShin_src           0000000180044ae0 f   dJs_LeftShin_src.obj
 0001:00044170       dJs_LeftThigh_src          0000000180045170 f   dJs_LeftThigh_src.obj
 0001:000445b0       dJs_LeftToe_src            00000001800455b0 f   dJs_LeftToe_src.obj
 0001:00044c40       dJs_RightHip_src           0000000180045c40 f   dJs_RightHip_src.obj
 0001:00045080       dJs_RightKnee_src          0000000180046080 f   dJs_RightKnee_src.obj
 0001:00045710       dJs_RightShin_src          0000000180046710 f   dJs_RightShin_src.obj
 0001:00045da0       dJs_RightThigh_src         0000000180046da0 f   dJs_RightThigh_src.obj
 0001:000461e0       dJs_RightToe_src           00000001800471e0 f   dJs_RightToe_src.obj
 0001:00046870       dJs_torso_src              0000000180047870 f   dJs_torso_src.obj
 0001:00046c90       dR_Head_src                0000000180047c90 f   dR_Head_src.obj
 0001:00046e50       dR_LeftHip_src             0000000180047e50 f   dR_LeftHip_src.obj
 0001:000471c0       dR_LeftKnee_src            00000001800481c0 f   dR_LeftKnee_src.obj
 0001:000477c0       dR_LeftShin_src            00000001800487c0 f   dR_LeftShin_src.obj
 0001:00047dc0       dR_LeftThigh_src           0000000180048dc0 f   dR_LeftThigh_src.obj
 0001:00048130       dR_LeftToe_src             0000000180049130 f   dR_LeftToe_src.obj
 0001:00048730       dR_RightHip_src            0000000180049730 f   dR_RightHip_src.obj
 0001:00048aa0       dR_RightKnee_src           0000000180049aa0 f   dR_RightKnee_src.obj
 0001:000490a0       dR_RightShin_src           000000018004a0a0 f   dR_RightShin_src.obj
 0001:000496a0       dR_RightThigh_src          000000018004a6a0 f   dR_RightThigh_src.obj
 0001:00049a10       dR_RightToe_src            000000018004aa10 f   dR_RightToe_src.obj
 0001:0004a010       dR_torso_src               000000018004b010 f   dR_torso_src.obj
 0001:0004a1d0       dT_Head_src                000000018004b1d0 f   dT_Head_src.obj
 0001:0004a4a0       dT_LeftHip_src             000000018004b4a0 f   dT_LeftHip_src.obj
 0001:0004a8f0       dT_LeftKnee_src            000000018004b8f0 f   dT_LeftKnee_src.obj
 0001:0004b290       dT_LeftShin_src            000000018004c290 f   dT_LeftShin_src.obj
 0001:0004bc30       dT_LeftThigh_src           000000018004cc30 f   dT_LeftThigh_src.obj
 0001:0004c120       dT_LeftToe_src             000000018004d120 f   dT_LeftToe_src.obj
 0001:0004cac0       dT_RightHip_src            000000018004dac0 f   dT_RightHip_src.obj
 0001:0004cf10       dT_RightKnee_src           000000018004df10 f   dT_RightKnee_src.obj
 0001:0004d8b0       dT_RightShin_src           000000018004e8b0 f   dT_RightShin_src.obj
 0001:0004e250       dT_RightThigh_src          000000018004f250 f   dT_RightThigh_src.obj
 0001:0004e740       dT_RightToe_src            000000018004f740 f   dT_RightToe_src.obj
 0001:0004f0e0       dT_torso_src               00000001800500e0 f   dT_torso_src.obj
 0001:0004f3b0       Inertia_LeftShin_src       00000001800503b0 f   Inertia_LeftShin_src.obj
 0001:0004f4c0       Inertia_LeftThigh_src      00000001800504c0 f   Inertia_LeftThigh_src.obj
 0001:0004f5d0       Inertia_RightShin_src      00000001800505d0 f   Inertia_RightShin_src.obj
 0001:0004f6e0       Inertia_RightThigh_src     00000001800506e0 f   Inertia_RightThigh_src.obj
 0001:0004f7f0       Inertia_torso_src          00000001800507f0 f   Inertia_torso_src.obj
 0001:0004f900       Jb_Head_src                0000000180050900 f   Jb_Head_src.obj
 0001:0004fd60       Jb_LeftHip_src             0000000180050d60 f   Jb_LeftHip_src.obj
 0001:00050250       Jb_LeftKnee_src            0000000180051250 f   Jb_LeftKnee_src.obj
 0001:00050a60       Jb_LeftShin_src            0000000180051a60 f   Jb_LeftShin_src.obj
 0001:00051310       Jb_LeftThigh_src           0000000180052310 f   Jb_LeftThigh_src.obj
 0001:00051880       Jb_LeftToe_src             0000000180052880 f   Jb_LeftToe_src.obj
 0001:00052130       Jb_RightHip_src            0000000180053130 f   Jb_RightHip_src.obj
 0001:00052620       Jb_RightKnee_src           0000000180053620 f   Jb_RightKnee_src.obj
 0001:00052e30       Jb_RightShin_src           0000000180053e30 f   Jb_RightShin_src.obj
 0001:000536e0       Jb_RightThigh_src          00000001800546e0 f   Jb_RightThigh_src.obj
 0001:00053c50       Jb_RightToe_src            0000000180054c50 f   Jb_RightToe_src.obj
 0001:00054500       Jb_torso_src               0000000180055500 f   Jb_torso_src.obj
 0001:00054960       Jp_Head_src                0000000180055960 f   Jp_Head_src.obj
 0001:00054bd0       Jp_LeftHip_src             0000000180055bd0 f   Jp_LeftHip_src.obj
 0001:00054df0       Jp_LeftKnee_src            0000000180055df0 f   Jp_LeftKnee_src.obj
 0001:000554f0       Jp_LeftShin_src            00000001800564f0 f   Jp_LeftShin_src.obj
 0001:00055bf0       Jp_LeftThigh_src           0000000180056bf0 f   Jp_LeftThigh_src.obj
 0001:00055f90       Jp_LeftToe_src             0000000180056f90 f   Jp_LeftToe_src.obj
 0001:00056690       Jp_RightHip_src            0000000180057690 f   Jp_RightHip_src.obj
 0001:000568b0       Jp_RightKnee_src           00000001800578b0 f   Jp_RightKnee_src.obj
 0001:00056fb0       Jp_RightShin_src           0000000180057fb0 f   Jp_RightShin_src.obj
 0001:000576b0       Jp_RightThigh_src          00000001800586b0 f   Jp_RightThigh_src.obj
 0001:00057a50       Jp_RightToe_src            0000000180058a50 f   Jp_RightToe_src.obj
 0001:00058150       Jp_torso_src               0000000180059150 f   Jp_torso_src.obj
 0001:000583c0       Js_Head_src                00000001800593c0 f   Js_Head_src.obj
 0001:000587d0       Js_LeftHip_src             00000001800597d0 f   Js_LeftHip_src.obj
 0001:00058c10       Js_LeftKnee_src            0000000180059c10 f   Js_LeftKnee_src.obj
 0001:00059160       Js_LeftShin_src            000000018005a160 f   Js_LeftShin_src.obj
 0001:000596b0       Js_LeftThigh_src           000000018005a6b0 f   Js_LeftThigh_src.obj
 0001:00059af0       Js_LeftToe_src             000000018005aaf0 f   Js_LeftToe_src.obj
 0001:0005a040       Js_RightHip_src            000000018005b040 f   Js_RightHip_src.obj
 0001:0005a480       Js_RightKnee_src           000000018005b480 f   Js_RightKnee_src.obj
 0001:0005a9d0       Js_RightShin_src           000000018005b9d0 f   Js_RightShin_src.obj
 0001:0005af20       Js_RightThigh_src          000000018005bf20 f   Js_RightThigh_src.obj
 0001:0005b360       Js_RightToe_src            000000018005c360 f   Js_RightToe_src.obj
 0001:0005b8b0       Js_torso_src               000000018005c8b0 f   Js_torso_src.obj
 0001:0005bcc0       p_Head_src                 000000018005ccc0 f   p_Head_src.obj
 0001:0005bdd0       p_LeftHip_src              000000018005cdd0 f   p_LeftHip_src.obj
 0001:0005be70       p_LeftKnee_src             000000018005ce70 f   p_LeftKnee_src.obj
 0001:0005c200       p_LeftShin_src             000000018005d200 f   p_LeftShin_src.obj
 0001:0005c590       p_LeftThigh_src            000000018005d590 f   p_LeftThigh_src.obj
 0001:0005c710       p_LeftToe_src              000000018005d710 f   p_LeftToe_src.obj
 0001:0005caa0       p_RightHip_src             000000018005daa0 f   p_RightHip_src.obj
 0001:0005cb40       p_RightKnee_src            000000018005db40 f   p_RightKnee_src.obj
 0001:0005ced0       p_RightShin_src            000000018005ded0 f   p_RightShin_src.obj
 0001:0005d260       p_RightThigh_src           000000018005e260 f   p_RightThigh_src.obj
 0001:0005d3e0       p_RightToe_src             000000018005e3e0 f   p_RightToe_src.obj
 0001:0005d770       p_torso_src                000000018005e770 f   p_torso_src.obj
 0001:0005d880       R_Head_src                 000000018005e880 f   R_Head_src.obj
 0001:0005d9e0       R_LeftHip_src              000000018005e9e0 f   R_LeftHip_src.obj
 0001:0005dbf0       R_LeftKnee_src             000000018005ebf0 f   R_LeftKnee_src.obj
 0001:0005df40       R_LeftShin_src             000000018005ef40 f   R_LeftShin_src.obj
 0001:0005e290       R_LeftThigh_src            000000018005f290 f   R_LeftThigh_src.obj
 0001:0005e4a0       R_LeftToe_src              000000018005f4a0 f   R_LeftToe_src.obj
 0001:0005e7f0       R_RightHip_src             000000018005f7f0 f   R_RightHip_src.obj
 0001:0005ea00       R_RightKnee_src            000000018005fa00 f   R_RightKnee_src.obj
 0001:0005ed50       R_RightShin_src            000000018005fd50 f   R_RightShin_src.obj
 0001:0005f0a0       R_RightThigh_src           00000001800600a0 f   R_RightThigh_src.obj
 0001:0005f2b0       R_RightToe_src             00000001800602b0 f   R_RightToe_src.obj
 0001:0005f600       R_torso_src                0000000180060600 f   R_torso_src.obj
 0001:0005f760       T_Head_src                 0000000180060760 f   T_Head_src.obj
 0001:0005f9a0       T_LeftHip_src              00000001800609a0 f   T_LeftHip_src.obj
 0001:0005fc70       T_LeftKnee_src             0000000180060c70 f   T_LeftKnee_src.obj
 0001:000601f0       T_LeftShin_src             00000001800611f0 f   T_LeftShin_src.obj
 0001:00060770       T_LeftThigh_src            0000000180061770 f   T_LeftThigh_src.obj
 0001:00060ac0       T_LeftToe_src              0000000180061ac0 f   T_LeftToe_src.obj
 0001:00061040       T_RightHip_src             0000000180062040 f   T_RightHip_src.obj
 0001:00061310       T_RightKnee_src            0000000180062310 f   T_RightKnee_src.obj
 0001:00061890       T_RightShin_src            0000000180062890 f   T_RightShin_src.obj
 0001:00061e10       T_RightThigh_src           0000000180062e10 f   T_RightThigh_src.obj
 0001:00062160       T_RightToe_src             0000000180063160 f   T_RightToe_src.obj
 0001:000626e0       T_torso_src                00000001800636e0 f   T_torso_src.obj
 0001:0006291a       dtrsm                      000000018006391a f   libmwblas:libmwblas.dll
 0001:00062920       sf_load_rtw_optimization_info 0000000180063920 f   sf_runtime:sf_runtime.dll
 0001:00062926       sf_debug_initialize_machine 0000000180063926 f   sf_runtime:sf_runtime.dll
 0001:0006292c       sf_debug_set_machine_event_thresholds 000000018006392c f   sf_runtime:sf_runtime.dll
 0001:00062932       sf_debug_set_machine_data_thresholds 0000000180063932 f   sf_runtime:sf_runtime.dll
 0001:00062938       sf_init_ChartRunTimeInfo   0000000180063938 f   sf_runtime:sf_runtime.dll
 0001:0006293e       sf_free_ChartRunTimeInfo   000000018006393e f   sf_runtime:sf_runtime.dll
 0001:00062944       sfrtGetEmlrtCtx            0000000180063944 f   sf_runtime:sf_runtime.dll
 0001:0006294a       sf_get_chart_instance_ptr  000000018006394a f   sf_runtime:sf_runtime.dll
 0001:00062950       sf_rtw_info_uint_prop      0000000180063950 f   sf_runtime:sf_runtime.dll
 0001:00062956       sf_update_buildInfo        0000000180063956 f   sf_runtime:sf_runtime.dll
 0001:0006295c       sf_is_chart_inlinable      000000018006395c f   sf_runtime:sf_runtime.dll
 0001:00062962       sf_mark_chart_reusable_outputs 0000000180063962 f   sf_runtime:sf_runtime.dll
 0001:00062968       sf_mark_chart_expressionable_inputs 0000000180063968 f   sf_runtime:sf_runtime.dll
 0001:0006296e       sim_mode_is_rtw_gen        000000018006396e f   sf_runtime:sf_runtime.dll
 0001:00062974       sim_mode_is_external       0000000180063974 f   sf_runtime:sf_runtime.dll
 0001:0006297a       sim_mode_is_modelref_sim   000000018006397a f   sf_runtime:sf_runtime.dll
 0001:00062980       sf_clear_rtw_identifier    0000000180063980 f   sf_runtime:sf_runtime.dll
 0001:00062986       sf_set_rtw_dwork_info      0000000180063986 f   sf_runtime:sf_runtime.dll
 0001:0006298c       sf_get_time                000000018006398c f   sf_runtime:sf_runtime.dll
 0001:00062992       sf_is_first_init_cond      0000000180063992 f   sf_runtime:sf_runtime.dll
 0001:00062998       sf_set_chart_accesses_machine_info 0000000180063998 f   sf_runtime:sf_runtime.dll
 0001:0006299e       sf_register_codegen_names_for_scoped_functions_defined_by_chart 000000018006399e f   sf_runtime:sf_runtime.dll
 0001:000629a4       ssSetBlockIsPurelyCombinatorial_wrapper 00000001800639a4 f   sf_runtime:sf_runtime.dll
 0001:000629aa       sf_mex_error_message       00000001800639aa f   sf_runtime:sf_runtime.dll
 0001:000629b0       sf_mex_create              00000001800639b0 f   sf_runtime:sf_runtime.dll
 0001:000629b6       sf_mex_createcellmatrix    00000001800639b6 f   sf_runtime:sf_runtime.dll
 0001:000629bc       sf_mex_setcell             00000001800639bc f   sf_runtime:sf_runtime.dll
 0001:000629c2       sf_mex_getcell             00000001800639c2 f   sf_runtime:sf_runtime.dll
 0001:000629c8       sf_mex_assign              00000001800639c8 f   sf_runtime:sf_runtime.dll
 0001:000629ce       sf_mex_dup                 00000001800639ce f   sf_runtime:sf_runtime.dll
 0001:000629d4       sf_mex_destroy             00000001800639d4 f   sf_runtime:sf_runtime.dll
 0001:000629da       sf_mex_import              00000001800639da f   sf_runtime:sf_runtime.dll
 0001:000629e0       sf_mex_decode_encoded_mx_struct_array 00000001800639e0 f   sf_runtime:sf_runtime.dll
 0001:000629e6       ssGetInputPortSignal_wrapper 00000001800639e6 f   sf_runtime:sf_runtime.dll
 0001:000629ec       ssGetOutputPortSignal_wrapper 00000001800639ec f   sf_runtime:sf_runtime.dll
 0001:000629f2       sf_debug_initialize_chart  00000001800639f2 f   sf_runtime:sf_runtime.dll
 0001:000629f8       sf_debug_call              00000001800639f8 f   sf_runtime:sf_runtime.dll
 0001:000629fe       eml_debug_line_call        00000001800639fe f   sf_runtime:sf_runtime.dll
 0001:00062a04       cv_eml_eval                0000000180063a04 f   sf_runtime:sf_runtime.dll
 0001:00062a0a       cv_eval_relational         0000000180063a0a f   sf_runtime:sf_runtime.dll
 0001:00062a10       cv_eml_init_script         0000000180063a10 f   sf_runtime:sf_runtime.dll
 0001:00062a16       cv_eml_init_fcn            0000000180063a16 f   sf_runtime:sf_runtime.dll
 0001:00062a1c       cv_eml_init_if             0000000180063a1c f   sf_runtime:sf_runtime.dll
 0001:00062a22       cv_eml_init_relational     0000000180063a22 f   sf_runtime:sf_runtime.dll
 0001:00062a28       cv_script_eval             0000000180063a28 f   sf_runtime:sf_runtime.dll
 0001:00062a2e       cv_script_init_script      0000000180063a2e f   sf_runtime:sf_runtime.dll
 0001:00062a34       cv_script_init_fcn         0000000180063a34 f   sf_runtime:sf_runtime.dll
 0001:00062a3a       cv_script_init_if          0000000180063a3a f   sf_runtime:sf_runtime.dll
 0001:00062a40       sf_debug_reset_current_state_configuration 0000000180063a40 f   sf_runtime:sf_runtime.dll
 0001:00062a46       sf_debug_check_for_state_inconsistency 0000000180063a46 f   sf_runtime:sf_runtime.dll
 0001:00062a4c       sf_debug_set_chart_data_props 0000000180063a4c f   sf_runtime:sf_runtime.dll
 0001:00062a52       sf_debug_set_chart_data_compiled_props 0000000180063a52 f   sf_runtime:sf_runtime.dll
 0001:00062a58       sf_debug_symbol_scope_push 0000000180063a58 f   sf_runtime:sf_runtime.dll
 0001:00062a5e       sf_debug_symbol_scope_push_eml 0000000180063a5e f   sf_runtime:sf_runtime.dll
 0001:00062a64       sf_debug_symbol_scope_pop  0000000180063a64 f   sf_runtime:sf_runtime.dll
 0001:00062a6a       sf_debug_symbol_scope_add_eml 0000000180063a6a f   sf_runtime:sf_runtime.dll
 0001:00062a70       sf_debug_symbol_scope_add_eml_importable 0000000180063a70 f   sf_runtime:sf_runtime.dll
 0001:00062a76       sf_debug_set_instance_data_value_ptr 0000000180063a76 f   sf_runtime:sf_runtime.dll
 0001:00062a7c       sf_debug_set_chart_disable_implicit_casting 0000000180063a7c f   sf_runtime:sf_runtime.dll
 0001:00062a82       sf_debug_set_chart_event_thresholds 0000000180063a82 f   sf_runtime:sf_runtime.dll
 0001:00062a88       sf_debug_set_chart_state_info 0000000180063a88 f   sf_runtime:sf_runtime.dll
 0001:00062a8e       sf_debug_set_chart_decomposition 0000000180063a8e f   sf_runtime:sf_runtime.dll
 0001:00062a94       sf_debug_set_chart_substate_count 0000000180063a94 f   sf_runtime:sf_runtime.dll
 0001:00062a9a       sf_debug_data_range_wrapper 0000000180063a9a f   sf_runtime:sf_runtime.dll
 0001:00062aa0       sf_debug_cv_init_trans     0000000180063aa0 f   sf_runtime:sf_runtime.dll
 0001:00062aa6       sf_debug_cv_init_chart     0000000180063aa6 f   sf_runtime:sf_runtime.dll
 0001:00062aac       sf_debug_cv_init_state     0000000180063aac f   sf_runtime:sf_runtime.dll
 0001:00062ab2       sf_debug_get_script_id     0000000180063ab2 f   sf_runtime:sf_runtime.dll
 0001:00062ab8       sf_debug_set_script_translation 0000000180063ab8 f   sf_runtime:sf_runtime.dll
 0001:00062abe       sf_mex_call_debug          0000000180063abe f   sf_runtime:sf_runtime.dll
 0001:00062ac4       sf_get_ChartInfoStruct_CodeGen 0000000180063ac4 f   sf_runtime:sf_runtime.dll
 0001:00062aca       sf_get_hasSeparateUpdateOutputs 0000000180063aca f   sf_runtime:sf_runtime.dll
 0001:00062ad0       callMdlMethodAndReportError 0000000180063ad0 f   sf_runtime:sf_runtime.dll
 0001:00062ad6       call_sf_machine_global_method_dispatcher 0000000180063ad6 f   sf_runtime:sf_runtime.dll
 0001:00062adc       getRuntimeInstanceInfoAsVoid 0000000180063adc f   sf_runtime:sf_runtime.dll
 0001:00062ae2       sf_mex_error_direct_call   0000000180063ae2 f   sf_runtime:sf_runtime.dll
 0001:00062ae8       sf_clear_error_manager_info 0000000180063ae8 f   sf_runtime:sf_runtime.dll
 0001:00062aee       sf_debug_create_debug_instance_struct 0000000180063aee f   sf_runtime:sf_runtime.dll
 0001:00062af4       sf_debug_terminate         0000000180063af4 f   sf_runtime:sf_runtime.dll
 0001:00062afa       sf_debug_api               0000000180063afa f   sf_runtime:sf_runtime.dll
 0001:00062b00       mxIsChar                   0000000180063b00 f   libmx:libmx.dll
 0001:00062b06       mxGetPr                    0000000180063b06 f   libmx:libmx.dll
 0001:00062b0c       mxGetScalar                0000000180063b0c f   libmx:libmx.dll
 0001:00062b12       mxDestroyArray             0000000180063b12 f   libmx:libmx.dll
 0001:00062b18       mxCreateDoubleMatrix_730   0000000180063b18 f   libmx:libmx.dll
 0001:00062b1e       mxGetString_730            0000000180063b1e f   libmx:libmx.dll
 0001:00062b24       mxDuplicateArray           0000000180063b24 f   libmx:libmx.dll
 0001:00062b2a       mxSetField_730             0000000180063b2a f   libmx:libmx.dll
 0001:00062b30       mxCreateDoubleScalar       0000000180063b30 f   libmx:libmx.dll
 0001:00062b36       mxCreateString             0000000180063b36 f   libmx:libmx.dll
 0001:00062b3c       mxCreateCellMatrix_730     0000000180063b3c f   libmx:libmx.dll
 0001:00062b42       mxCreateCellArray_730      0000000180063b42 f   libmx:libmx.dll
 0001:00062b48       mxCreateStructMatrix_730   0000000180063b48 f   libmx:libmx.dll
 0001:00062b4e       mxCreateStructArray_730    0000000180063b4e f   libmx:libmx.dll
 0001:00062b54       mxGetNaN                   0000000180063b54 f   libmx:libmx.dll
 0001:00062b5a       mxSetCell_730              0000000180063b5a f   libmx:libmx.dll
 0001:00062b60       mxCalloc                   0000000180063b60 f   libmx:libmx.dll
 0001:00062b66       mxGetM                     0000000180063b66 f   libmx:libmx.dll
 0001:00062b6c       mxGetClassID               0000000180063b6c f   libmx:libmx.dll
 0001:00062b72       mxIsNumeric                0000000180063b72 f   libmx:libmx.dll
 0001:00062b78       mxIsComplex                0000000180063b78 f   libmx:libmx.dll
 0001:00062b7e       mxGetN                     0000000180063b7e f   libmx:libmx.dll
 0001:00062b84       mexMakeArrayPersistent     0000000180063b84 f   libmex:libmex.dll
 0001:00062b8a       mexErrMsgTxt               0000000180063b8a f   libmex:libmex.dll
 0001:00062b90       mexWarnMsgTxt              0000000180063b90 f   libmex:libmex.dll
 0001:00062b96       mexCallMATLABWithObject    0000000180063b96 f   libmex:libmex.dll
 0001:00062b9c       mexLock                    0000000180063b9c f   libmex:libmex.dll
 0001:00062ba2       mexUnlock                  0000000180063ba2 f   libmex:libmex.dll
 0001:00062ba8       mexIsLocked                0000000180063ba8 f   libmex:libmex.dll
 0001:00062bae       utMalloc                   0000000180063bae f   libut:libut.dll
 0001:00062bb4       utFree                     0000000180063bb4 f   libut:libut.dll
 0001:00062bba       muDoubleScalarAbs          0000000180063bba f   libmwmathutil:libmwmathutil.dll
 0001:00062bc0       muDoubleScalarIsNaN        0000000180063bc0 f   libmwmathutil:libmwmathutil.dll
 0001:00062bc6       muDoubleScalarCeil         0000000180063bc6 f   libmwmathutil:libmwmathutil.dll
 0001:00062bcc       muDoubleScalarFloor        0000000180063bcc f   libmwmathutil:libmwmathutil.dll
 0001:00062bd2       muDoubleScalarRem          0000000180063bd2 f   libmwmathutil:libmwmathutil.dll
 0001:00062bd8       muDoubleScalarIsInf        0000000180063bd8 f   libmwmathutil:libmwmathutil.dll
 0001:00062bde       emlrtNameCaptureMxArrayR2016a 0000000180063bde f   libemlrt:libemlrt.dll
 0001:00062be4       __raise_securityfailure    0000000180063be4 f   MSVCRT:gs_report.obj
 0001:00062c18       __report_gsfailure         0000000180063c18 f   MSVCRT:gs_report.obj
 0001:00062cec       __report_rangecheckfailure 0000000180063cec f   MSVCRT:gs_report.obj
 0001:00062d00       __report_securityfailure   0000000180063d00 f   MSVCRT:gs_report.obj
 0001:00062d9c       __report_securityfailureEx 0000000180063d9c f   MSVCRT:gs_report.obj
 0001:00062f90       __GSHandlerCheck           0000000180063f90 f   MSVCRT:_gshandler_.obj
 0001:00062fb0       __GSHandlerCheckCommon     0000000180063fb0 f   MSVCRT:_gshandler_.obj
 0001:00063020       __security_check_cookie    0000000180064020 f   MSVCRT:_amdsecgs_.obj
 0001:00063060       _alloca_probe              0000000180064060 f   MSVCRT:_chkstk_.obj
 0001:00063060       __chkstk                   0000000180064060 f   MSVCRT:_chkstk_.obj
 0001:00063400       _CRT_INIT                  0000000180064400 f   MSVCRT:dll_dllmain.obj
 0001:00063408       _DllMainCRTStartup         0000000180064408 f   MSVCRT:dll_dllmain.obj
 0001:00063448       ??$__crt_fast_decode_pointer@PEAP6AXXZ@@YAPEAP6AXXZQEAP6AXXZ@Z 0000000180064448 f i MSVCRT:utility.obj
 0001:00063460       ??$__crt_fast_encode_pointer@PEAP6AXXZ@@YAPEAP6AXXZQEAP6AXXZ@Z 0000000180064460 f i MSVCRT:utility.obj
 0001:00063480       ?__crt_rotate_pointer_value@@YA_K_KH@Z 0000000180064480 f i MSVCRT:utility.obj
 0001:0006348c       ?configure_argv@__scrt_narrow_argv_policy@@SAHXZ 000000018006448c f i MSVCRT:utility.obj
 0001:0006351c       NtCurrentTeb               000000018006451c f i MSVCRT:utility.obj
 0001:00063528       __scrt_acquire_startup_lock 0000000180064528 f   MSVCRT:utility.obj
 0001:00063564       __scrt_dllmain_after_initialize_c 0000000180064564 f   MSVCRT:utility.obj
 0001:00063598       __scrt_dllmain_before_initialize_c 0000000180064598 f   MSVCRT:utility.obj
 0001:000635b0       __scrt_dllmain_crt_thread_attach 00000001800645b0 f   MSVCRT:utility.obj
 0001:000635d8       __scrt_dllmain_crt_thread_detach 00000001800645d8 f   MSVCRT:utility.obj
 0001:000635f0       __scrt_dllmain_exception_filter 00000001800645f0 f   MSVCRT:utility.obj
 0001:00063654       __scrt_dllmain_uninitialize_c 0000000180064654 f   MSVCRT:utility.obj
 0001:00063684       __scrt_dllmain_uninitialize_critical 0000000180064684 f   MSVCRT:utility.obj
 0001:00063698       __scrt_initialize_crt      0000000180064698 f   MSVCRT:utility.obj
 0001:000636e4       __scrt_initialize_onexit_tables 00000001800646e4 f   MSVCRT:utility.obj
 0001:000637b0       __scrt_is_nonwritable_in_current_image 00000001800647b0 f   MSVCRT:utility.obj
 0001:0006384c       __scrt_release_startup_lock 000000018006484c f   MSVCRT:utility.obj
 0001:00063870       __scrt_uninitialize_crt    0000000180064870 f   MSVCRT:utility.obj
 0001:0006389c       _onexit                    000000018006489c f   MSVCRT:utility.obj
 0001:000638ec       at_quick_exit              00000001800648ec f   MSVCRT:utility.obj
 0001:00063924       atexit                     0000000180064924 f   MSVCRT:utility.obj
 0001:0006393c       __security_init_cookie     000000018006493c f   MSVCRT:gs_support.obj
 0001:000639e8       DllMain                    00000001800649e8 f   MSVCRT:dll_dllmain_stub.obj
 0001:00063a0c       ?__scrt_initialize_type_info@@YAXXZ 0000000180064a0c f   MSVCRT:tncleanup.obj
 0001:00063a1c       ?__scrt_uninitialize_type_info@@YAXXZ 0000000180064a1c f   MSVCRT:tncleanup.obj
 0001:00063a28       __local_stdio_scanf_options 0000000180064a28 f i MSVCRT:default_local_stdio_options.obj
 0001:00063a30       __scrt_initialize_default_local_stdio_options 0000000180064a30 f   MSVCRT:default_local_stdio_options.obj
 0001:00063a4c       __scrt_get_dyn_tls_init_callback 0000000180064a4c f   MSVCRT:dyn_tls_init.obj
 0001:00063a54       __crt_debugger_hook        0000000180064a54 f   MSVCRT:utility_desktop.obj
 0001:00063a5c       __scrt_fastfail            0000000180064a5c f   MSVCRT:utility_desktop.obj
 0001:00063ba4       __scrt_get_show_window_mode 0000000180064ba4 f   MSVCRT:utility_desktop.obj
 0001:00063be0       __scrt_initialize_winrt    0000000180064be0 f   MSVCRT:utility_desktop.obj
 0001:00063be4       __scrt_is_managed_app      0000000180064be4 f   MSVCRT:utility_desktop.obj
 0001:00063c38       __scrt_set_unhandled_exception_filter 0000000180064c38 f   MSVCRT:utility_desktop.obj
 0001:00063c48       __scrt_unhandled_exception_filter 0000000180064c48 f   MSVCRT:utility_desktop.obj
 0001:00063c80       _RTC_Initialize            0000000180064c80 f   MSVCRT:_initsect_.obj
 0001:00063ccc       _RTC_Terminate             0000000180064ccc f   MSVCRT:_initsect_.obj
 0001:00063d18       _guard_check_icall         0000000180064d18 f i MSVCRT:checkcfg.obj
 0001:00063d20       __isa_available_init       0000000180064d20 f   MSVCRT:_cpu_disp_.obj
 0001:00063ee8       _get_startup_argv_mode     0000000180064ee8 f   MSVCRT:argv_mode.obj
 0001:00063ef0       __scrt_is_ucrt_dll_in_use  0000000180064ef0 f   MSVCRT:ucrt_detection.obj
 0001:00063efc       _guard_check_icall_nop     0000000180064efc f i MSVCRT:guard_support.obj
 0001:00063f00       _guard_icall_checks_enforced 0000000180064f00 f i MSVCRT:guard_support.obj
 0001:00063f20       RtlCaptureContext          0000000180064f20 f   kernel32:KERNEL32.dll
 0001:00063f26       RtlLookupFunctionEntry     0000000180064f26 f   kernel32:KERNEL32.dll
 0001:00063f2c       RtlVirtualUnwind           0000000180064f2c f   kernel32:KERNEL32.dll
 0001:00063f32       UnhandledExceptionFilter   0000000180064f32 f   kernel32:KERNEL32.dll
 0001:00063f38       SetUnhandledExceptionFilter 0000000180064f38 f   kernel32:KERNEL32.dll
 0001:00063f3e       GetCurrentProcess          0000000180064f3e f   kernel32:KERNEL32.dll
 0001:00063f44       TerminateProcess           0000000180064f44 f   kernel32:KERNEL32.dll
 0001:00063f4a       IsProcessorFeaturePresent  0000000180064f4a f   kernel32:KERNEL32.dll
 0001:00063f50       QueryPerformanceCounter    0000000180064f50 f   kernel32:KERNEL32.dll
 0001:00063f56       GetCurrentProcessId        0000000180064f56 f   kernel32:KERNEL32.dll
 0001:00063f5c       GetCurrentThreadId         0000000180064f5c f   kernel32:KERNEL32.dll
 0001:00063f62       GetSystemTimeAsFileTime    0000000180064f62 f   kernel32:KERNEL32.dll
 0001:00063f68       DisableThreadLibraryCalls  0000000180064f68 f   kernel32:KERNEL32.dll
 0001:00063f6e       InitializeSListHead        0000000180064f6e f   kernel32:KERNEL32.dll
 0001:00063f74       IsDebuggerPresent          0000000180064f74 f   kernel32:KERNEL32.dll
 0001:00063f7a       GetStartupInfoW            0000000180064f7a f   kernel32:KERNEL32.dll
 0001:00063f80       GetModuleHandleW           0000000180064f80 f   kernel32:KERNEL32.dll
 0001:00063f86       memset                     0000000180064f86 f   vcruntime:VCRUNTIME140.dll
 0001:00063f8c       memcpy                     0000000180064f8c f   vcruntime:VCRUNTIME140.dll
 0001:00063f92       __C_specific_handler       0000000180064f92 f   vcruntime:VCRUNTIME140.dll
 0001:00063f98       __std_type_info_destroy_list 0000000180064f98 f   vcruntime:VCRUNTIME140.dll
 0001:00063f9e       strcmp                     0000000180064f9e f   ucrt:api-ms-win-crt-string-l1-1-0.dll
 0001:00063fa4       __stdio_common_vsprintf    0000000180064fa4 f   ucrt:api-ms-win-crt-stdio-l1-1-0.dll
 0001:00063faa       free                       0000000180064faa f   ucrt:api-ms-win-crt-heap-l1-1-0.dll
 0001:00063fb0       malloc                     0000000180064fb0 f   ucrt:api-ms-win-crt-heap-l1-1-0.dll
 0001:00063fb6       strlen                     0000000180064fb6 f   ucrt:api-ms-win-crt-string-l1-1-0.dll
 0001:00063fbc       cos                        0000000180064fbc f   ucrt:api-ms-win-crt-math-l1-1-0.dll
 0001:00063fc2       pow                        0000000180064fc2 f   ucrt:api-ms-win-crt-math-l1-1-0.dll
 0001:00063fc8       sin                        0000000180064fc8 f   ucrt:api-ms-win-crt-math-l1-1-0.dll
 0001:00063fce       _initterm                  0000000180064fce f   ucrt:api-ms-win-crt-runtime-l1-1-0.dll
 0001:00063fd4       _initterm_e                0000000180064fd4 f   ucrt:api-ms-win-crt-runtime-l1-1-0.dll
 0001:00063fda       _seh_filter_dll            0000000180064fda f   ucrt:api-ms-win-crt-runtime-l1-1-0.dll
 0001:00063fe0       _configure_narrow_argv     0000000180064fe0 f   ucrt:api-ms-win-crt-runtime-l1-1-0.dll
 0001:00063fe6       _initialize_narrow_environment 0000000180064fe6 f   ucrt:api-ms-win-crt-runtime-l1-1-0.dll
 0001:00063fec       _initialize_onexit_table   0000000180064fec f   ucrt:api-ms-win-crt-runtime-l1-1-0.dll
 0001:00063ff2       _register_onexit_function  0000000180064ff2 f   ucrt:api-ms-win-crt-runtime-l1-1-0.dll
 0001:00063ff8       _execute_onexit_table      0000000180064ff8 f   ucrt:api-ms-win-crt-runtime-l1-1-0.dll
 0001:00063ffe       _crt_atexit                0000000180064ffe f   ucrt:api-ms-win-crt-runtime-l1-1-0.dll
 0001:00064004       _crt_at_quick_exit         0000000180065004 f   ucrt:api-ms-win-crt-runtime-l1-1-0.dll
 0001:0006400a       _cexit                     000000018006500a f   ucrt:api-ms-win-crt-runtime-l1-1-0.dll
 0001:00064010       terminate                  0000000180065010 f   ucrt:api-ms-win-crt-runtime-l1-1-0.dll
 0001:00064018       __acrt_initialize          0000000180065018 f   MSVCRT:ucrt_stubs.obj
 0001:00064018       __scrt_stub_for_acrt_initialize 0000000180065018 f   MSVCRT:ucrt_stubs.obj
 0001:00064018       __vcrt_initialize          0000000180065018 f   MSVCRT:ucrt_stubs.obj
 0001:0006401c       __scrt_stub_for_acrt_thread_attach 000000018006501c f   MSVCRT:ucrt_stubs.obj
 0001:0006401c       __vcrt_thread_attach       000000018006501c f   MSVCRT:ucrt_stubs.obj
 0001:0006401c       __acrt_thread_attach       000000018006501c f   MSVCRT:ucrt_stubs.obj
 0001:00064020       __vcrt_thread_detach       0000000180065020 f   MSVCRT:ucrt_stubs.obj
 0001:00064020       __acrt_thread_detach       0000000180065020 f   MSVCRT:ucrt_stubs.obj
 0001:00064020       __scrt_stub_for_acrt_thread_detach 0000000180065020 f   MSVCRT:ucrt_stubs.obj
 0001:00064024       __vcrt_uninitialize        0000000180065024 f   MSVCRT:ucrt_stubs.obj
 0001:00064024       __scrt_stub_for_acrt_uninitialize 0000000180065024 f   MSVCRT:ucrt_stubs.obj
 0001:00064024       __acrt_uninitialize        0000000180065024 f   MSVCRT:ucrt_stubs.obj
 0001:00064028       __vcrt_uninitialize_critical 0000000180065028 f   MSVCRT:ucrt_stubs.obj
 0001:00064028       __acrt_uninitialize_critical 0000000180065028 f   MSVCRT:ucrt_stubs.obj
 0001:00064028       __scrt_stub_for_acrt_uninitialize_critical 0000000180065028 f   MSVCRT:ucrt_stubs.obj
 0001:0006402c       _is_c_termination_complete 000000018006502c f   MSVCRT:ucrt_stubs.obj
 0001:0006402c       __scrt_stub_for_is_c_termination_complete 000000018006502c f   MSVCRT:ucrt_stubs.obj
 0001:00064040       _guard_dispatch_icall_nop  0000000180065040 f   MSVCRT:_guard_dispatch_.obj
 0002:00000000       __imp_UnhandledExceptionFilter 0000000180066000     kernel32:KERNEL32.dll
 0002:00000008       __imp_RtlCaptureContext    0000000180066008     kernel32:KERNEL32.dll
 0002:00000010       __imp_IsProcessorFeaturePresent 0000000180066010     kernel32:KERNEL32.dll
 0002:00000018       __imp_QueryPerformanceCounter 0000000180066018     kernel32:KERNEL32.dll
 0002:00000020       __imp_RtlLookupFunctionEntry 0000000180066020     kernel32:KERNEL32.dll
 0002:00000028       __imp_RtlVirtualUnwind     0000000180066028     kernel32:KERNEL32.dll
 0002:00000030       __imp_GetCurrentProcessId  0000000180066030     kernel32:KERNEL32.dll
 0002:00000038       __imp_GetCurrentThreadId   0000000180066038     kernel32:KERNEL32.dll
 0002:00000040       __imp_GetSystemTimeAsFileTime 0000000180066040     kernel32:KERNEL32.dll
 0002:00000048       __imp_DisableThreadLibraryCalls 0000000180066048     kernel32:KERNEL32.dll
 0002:00000050       __imp_InitializeSListHead  0000000180066050     kernel32:KERNEL32.dll
 0002:00000058       __imp_IsDebuggerPresent    0000000180066058     kernel32:KERNEL32.dll
 0002:00000060       __imp_GetStartupInfoW      0000000180066060     kernel32:KERNEL32.dll
 0002:00000068       __imp_GetModuleHandleW     0000000180066068     kernel32:KERNEL32.dll
 0002:00000070       __imp_GetCurrentProcess    0000000180066070     kernel32:KERNEL32.dll
 0002:00000078       __imp_SetUnhandledExceptionFilter 0000000180066078     kernel32:KERNEL32.dll
 0002:00000080       __imp_TerminateProcess     0000000180066080     kernel32:KERNEL32.dll
 0002:00000088       \177KERNEL32_NULL_THUNK_DATA 0000000180066088     kernel32:KERNEL32.dll
 0002:00000090       __imp_memset               0000000180066090     vcruntime:VCRUNTIME140.dll
 0002:00000098       __imp_memcpy               0000000180066098     vcruntime:VCRUNTIME140.dll
 0002:000000a0       __imp___C_specific_handler 00000001800660a0     vcruntime:VCRUNTIME140.dll
 0002:000000a8       __imp___std_type_info_destroy_list 00000001800660a8     vcruntime:VCRUNTIME140.dll
 0002:000000b0       \177VCRUNTIME140_NULL_THUNK_DATA 00000001800660b0     vcruntime:VCRUNTIME140.dll
 0002:000000b8       __imp_malloc               00000001800660b8     ucrt:api-ms-win-crt-heap-l1-1-0.dll
 0002:000000c0       __imp_free                 00000001800660c0     ucrt:api-ms-win-crt-heap-l1-1-0.dll
 0002:000000c8       \177api-ms-win-crt-heap-l1-1-0_NULL_THUNK_DATA 00000001800660c8     ucrt:api-ms-win-crt-heap-l1-1-0.dll
 0002:000000d0       __imp_sin                  00000001800660d0     ucrt:api-ms-win-crt-math-l1-1-0.dll
 0002:000000d8       __imp_cos                  00000001800660d8     ucrt:api-ms-win-crt-math-l1-1-0.dll
 0002:000000e0       __imp_pow                  00000001800660e0     ucrt:api-ms-win-crt-math-l1-1-0.dll
 0002:000000e8       \177api-ms-win-crt-math-l1-1-0_NULL_THUNK_DATA 00000001800660e8     ucrt:api-ms-win-crt-math-l1-1-0.dll
 0002:000000f0       __imp__configure_narrow_argv 00000001800660f0     ucrt:api-ms-win-crt-runtime-l1-1-0.dll
 0002:000000f8       __imp__initialize_narrow_environment 00000001800660f8     ucrt:api-ms-win-crt-runtime-l1-1-0.dll
 0002:00000100       __imp__initterm            0000000180066100     ucrt:api-ms-win-crt-runtime-l1-1-0.dll
 0002:00000108       __imp__register_onexit_function 0000000180066108     ucrt:api-ms-win-crt-runtime-l1-1-0.dll
 0002:00000110       __imp__execute_onexit_table 0000000180066110     ucrt:api-ms-win-crt-runtime-l1-1-0.dll
 0002:00000118       __imp__crt_atexit          0000000180066118     ucrt:api-ms-win-crt-runtime-l1-1-0.dll
 0002:00000120       __imp__crt_at_quick_exit   0000000180066120     ucrt:api-ms-win-crt-runtime-l1-1-0.dll
 0002:00000128       __imp__cexit               0000000180066128     ucrt:api-ms-win-crt-runtime-l1-1-0.dll
 0002:00000130       __imp_terminate            0000000180066130     ucrt:api-ms-win-crt-runtime-l1-1-0.dll
 0002:00000138       __imp__seh_filter_dll      0000000180066138     ucrt:api-ms-win-crt-runtime-l1-1-0.dll
 0002:00000140       __imp__initterm_e          0000000180066140     ucrt:api-ms-win-crt-runtime-l1-1-0.dll
 0002:00000148       __imp__initialize_onexit_table 0000000180066148     ucrt:api-ms-win-crt-runtime-l1-1-0.dll
 0002:00000150       \177api-ms-win-crt-runtime-l1-1-0_NULL_THUNK_DATA 0000000180066150     ucrt:api-ms-win-crt-runtime-l1-1-0.dll
 0002:00000158       __imp___stdio_common_vsprintf 0000000180066158     ucrt:api-ms-win-crt-stdio-l1-1-0.dll
 0002:00000160       \177api-ms-win-crt-stdio-l1-1-0_NULL_THUNK_DATA 0000000180066160     ucrt:api-ms-win-crt-stdio-l1-1-0.dll
 0002:00000168       __imp_strlen               0000000180066168     ucrt:api-ms-win-crt-string-l1-1-0.dll
 0002:00000170       __imp_strcmp               0000000180066170     ucrt:api-ms-win-crt-string-l1-1-0.dll
 0002:00000178       \177api-ms-win-crt-string-l1-1-0_NULL_THUNK_DATA 0000000180066178     ucrt:api-ms-win-crt-string-l1-1-0.dll
 0002:00000180       __imp_emlrtNameCaptureMxArrayR2016a 0000000180066180     libemlrt:libemlrt.dll
 0002:00000188       \177libemlrt_NULL_THUNK_DATA 0000000180066188     libemlrt:libemlrt.dll
 0002:00000190       __imp_mexErrMsgTxt         0000000180066190     libmex:libmex.dll
 0002:00000198       __imp_mexIsLocked          0000000180066198     libmex:libmex.dll
 0002:000001a0       __imp_mexUnlock            00000001800661a0     libmex:libmex.dll
 0002:000001a8       __imp_mexLock              00000001800661a8     libmex:libmex.dll
 0002:000001b0       __imp_mexCallMATLABWithObject 00000001800661b0     libmex:libmex.dll
 0002:000001b8       __imp_mexWarnMsgTxt        00000001800661b8     libmex:libmex.dll
 0002:000001c0       __imp_mexMakeArrayPersistent 00000001800661c0     libmex:libmex.dll
 0002:000001c8       \177libmex_NULL_THUNK_DATA 00000001800661c8     libmex:libmex.dll
 0002:000001d0       __imp_dtrsm                00000001800661d0     libmwblas:libmwblas.dll
 0002:000001d8       \177libmwblas_NULL_THUNK_DATA 00000001800661d8     libmwblas:libmwblas.dll
 0002:000001e0       __imp_muDoubleScalarIsInf  00000001800661e0     libmwmathutil:libmwmathutil.dll
 0002:000001e8       __imp_muDoubleScalarRem    00000001800661e8     libmwmathutil:libmwmathutil.dll
 0002:000001f0       __imp_muDoubleScalarFloor  00000001800661f0     libmwmathutil:libmwmathutil.dll
 0002:000001f8       __imp_muDoubleScalarCeil   00000001800661f8     libmwmathutil:libmwmathutil.dll
 0002:00000200       __imp_muDoubleScalarIsNaN  0000000180066200     libmwmathutil:libmwmathutil.dll
 0002:00000208       __imp_muDoubleScalarAbs    0000000180066208     libmwmathutil:libmwmathutil.dll
 0002:00000210       \177libmwmathutil_NULL_THUNK_DATA 0000000180066210     libmwmathutil:libmwmathutil.dll
 0002:00000218       __imp_mxCreateDoubleMatrix_730 0000000180066218     libmx:libmx.dll
 0002:00000220       __imp_mxGetN               0000000180066220     libmx:libmx.dll
 0002:00000228       __imp_mxIsComplex          0000000180066228     libmx:libmx.dll
 0002:00000230       __imp_mxIsNumeric          0000000180066230     libmx:libmx.dll
 0002:00000238       __imp_mxGetClassID         0000000180066238     libmx:libmx.dll
 0002:00000240       __imp_mxGetM               0000000180066240     libmx:libmx.dll
 0002:00000248       __imp_mxCalloc             0000000180066248     libmx:libmx.dll
 0002:00000250       __imp_mxSetCell_730        0000000180066250     libmx:libmx.dll
 0002:00000258       __imp_mxGetNaN             0000000180066258     libmx:libmx.dll
 0002:00000260       __imp_mxCreateStructArray_730 0000000180066260     libmx:libmx.dll
 0002:00000268       __imp_mxCreateStructMatrix_730 0000000180066268     libmx:libmx.dll
 0002:00000270       __imp_mxCreateCellArray_730 0000000180066270     libmx:libmx.dll
 0002:00000278       __imp_mxCreateCellMatrix_730 0000000180066278     libmx:libmx.dll
 0002:00000280       __imp_mxCreateString       0000000180066280     libmx:libmx.dll
 0002:00000288       __imp_mxCreateDoubleScalar 0000000180066288     libmx:libmx.dll
 0002:00000290       __imp_mxIsChar             0000000180066290     libmx:libmx.dll
 0002:00000298       __imp_mxGetPr              0000000180066298     libmx:libmx.dll
 0002:000002a0       __imp_mxGetScalar          00000001800662a0     libmx:libmx.dll
 0002:000002a8       __imp_mxDestroyArray       00000001800662a8     libmx:libmx.dll
 0002:000002b0       __imp_mxSetField_730       00000001800662b0     libmx:libmx.dll
 0002:000002b8       __imp_mxGetString_730      00000001800662b8     libmx:libmx.dll
 0002:000002c0       __imp_mxDuplicateArray     00000001800662c0     libmx:libmx.dll
 0002:000002c8       \177libmx_NULL_THUNK_DATA  00000001800662c8     libmx:libmx.dll
 0002:000002d0       __imp_utMalloc             00000001800662d0     libut:libut.dll
 0002:000002d8       __imp_utFree               00000001800662d8     libut:libut.dll
 0002:000002e0       \177libut_NULL_THUNK_DATA  00000001800662e0     libut:libut.dll
 0002:000002e8       __imp_sf_debug_terminate   00000001800662e8     sf_runtime:sf_runtime.dll
 0002:000002f0       __imp_sf_debug_create_debug_instance_struct 00000001800662f0     sf_runtime:sf_runtime.dll
 0002:000002f8       __imp_sf_clear_error_manager_info 00000001800662f8     sf_runtime:sf_runtime.dll
 0002:00000300       __imp_sf_mex_error_direct_call 0000000180066300     sf_runtime:sf_runtime.dll
 0002:00000308       __imp_getRuntimeInstanceInfoAsVoid 0000000180066308     sf_runtime:sf_runtime.dll
 0002:00000310       __imp_call_sf_machine_global_method_dispatcher 0000000180066310     sf_runtime:sf_runtime.dll
 0002:00000318       __imp_callMdlMethodAndReportError 0000000180066318     sf_runtime:sf_runtime.dll
 0002:00000320       __imp_sf_get_hasSeparateUpdateOutputs 0000000180066320     sf_runtime:sf_runtime.dll
 0002:00000328       __imp_sf_get_ChartInfoStruct_CodeGen 0000000180066328     sf_runtime:sf_runtime.dll
 0002:00000330       __imp_sf_mex_call_debug    0000000180066330     sf_runtime:sf_runtime.dll
 0002:00000338       __imp_sf_debug_api         0000000180066338     sf_runtime:sf_runtime.dll
 0002:00000340       __imp_sf_debug_get_script_id 0000000180066340     sf_runtime:sf_runtime.dll
 0002:00000348       __imp_sf_debug_cv_init_state 0000000180066348     sf_runtime:sf_runtime.dll
 0002:00000350       __imp_sf_debug_symbol_scope_add_eml_importable 0000000180066350     sf_runtime:sf_runtime.dll
 0002:00000358       __imp_sf_debug_symbol_scope_add_eml 0000000180066358     sf_runtime:sf_runtime.dll
 0002:00000360       __imp_sf_debug_symbol_scope_pop 0000000180066360     sf_runtime:sf_runtime.dll
 0002:00000368       __imp_sf_debug_symbol_scope_push_eml 0000000180066368     sf_runtime:sf_runtime.dll
 0002:00000370       __imp_sf_debug_symbol_scope_push 0000000180066370     sf_runtime:sf_runtime.dll
 0002:00000378       __imp_sf_debug_set_chart_data_compiled_props 0000000180066378     sf_runtime:sf_runtime.dll
 0002:00000380       __imp_sf_debug_set_chart_data_props 0000000180066380     sf_runtime:sf_runtime.dll
 0002:00000388       __imp_sf_debug_check_for_state_inconsistency 0000000180066388     sf_runtime:sf_runtime.dll
 0002:00000390       __imp_sf_debug_set_script_translation 0000000180066390     sf_runtime:sf_runtime.dll
 0002:00000398       __imp_sf_debug_set_instance_data_value_ptr 0000000180066398     sf_runtime:sf_runtime.dll
 0002:000003a0       __imp_sf_debug_cv_init_chart 00000001800663a0     sf_runtime:sf_runtime.dll
 0002:000003a8       __imp_sf_debug_cv_init_trans 00000001800663a8     sf_runtime:sf_runtime.dll
 0002:000003b0       __imp_sf_debug_data_range_wrapper 00000001800663b0     sf_runtime:sf_runtime.dll
 0002:000003b8       __imp_sf_debug_set_chart_substate_count 00000001800663b8     sf_runtime:sf_runtime.dll
 0002:000003c0       __imp_sf_debug_set_chart_decomposition 00000001800663c0     sf_runtime:sf_runtime.dll
 0002:000003c8       __imp_sf_debug_set_chart_state_info 00000001800663c8     sf_runtime:sf_runtime.dll
 0002:000003d0       __imp_sf_debug_set_chart_event_thresholds 00000001800663d0     sf_runtime:sf_runtime.dll
 0002:000003d8       __imp_sf_debug_reset_current_state_configuration 00000001800663d8     sf_runtime:sf_runtime.dll
 0002:000003e0       __imp_cv_script_init_if    00000001800663e0     sf_runtime:sf_runtime.dll
 0002:000003e8       __imp_cv_script_init_fcn   00000001800663e8     sf_runtime:sf_runtime.dll
 0002:000003f0       __imp_cv_script_init_script 00000001800663f0     sf_runtime:sf_runtime.dll
 0002:000003f8       __imp_cv_script_eval       00000001800663f8     sf_runtime:sf_runtime.dll
 0002:00000400       __imp_cv_eml_init_relational 0000000180066400     sf_runtime:sf_runtime.dll
 0002:00000408       __imp_cv_eml_init_if       0000000180066408     sf_runtime:sf_runtime.dll
 0002:00000410       __imp_cv_eml_init_fcn      0000000180066410     sf_runtime:sf_runtime.dll
 0002:00000418       __imp_cv_eml_init_script   0000000180066418     sf_runtime:sf_runtime.dll
 0002:00000420       __imp_cv_eval_relational   0000000180066420     sf_runtime:sf_runtime.dll
 0002:00000428       __imp_cv_eml_eval          0000000180066428     sf_runtime:sf_runtime.dll
 0002:00000430       __imp_eml_debug_line_call  0000000180066430     sf_runtime:sf_runtime.dll
 0002:00000438       __imp_sf_debug_call        0000000180066438     sf_runtime:sf_runtime.dll
 0002:00000440       __imp_sf_debug_initialize_chart 0000000180066440     sf_runtime:sf_runtime.dll
 0002:00000448       __imp_ssGetOutputPortSignal_wrapper 0000000180066448     sf_runtime:sf_runtime.dll
 0002:00000450       __imp_ssGetInputPortSignal_wrapper 0000000180066450     sf_runtime:sf_runtime.dll
 0002:00000458       __imp_sf_mex_decode_encoded_mx_struct_array 0000000180066458     sf_runtime:sf_runtime.dll
 0002:00000460       __imp_sf_mex_import        0000000180066460     sf_runtime:sf_runtime.dll
 0002:00000468       __imp_sf_mex_destroy       0000000180066468     sf_runtime:sf_runtime.dll
 0002:00000470       __imp_sf_mex_dup           0000000180066470     sf_runtime:sf_runtime.dll
 0002:00000478       __imp_sf_mex_assign        0000000180066478     sf_runtime:sf_runtime.dll
 0002:00000480       __imp_sf_mex_getcell       0000000180066480     sf_runtime:sf_runtime.dll
 0002:00000488       __imp_sf_mex_setcell       0000000180066488     sf_runtime:sf_runtime.dll
 0002:00000490       __imp_sf_mex_createcellmatrix 0000000180066490     sf_runtime:sf_runtime.dll
 0002:00000498       __imp_sf_mex_create        0000000180066498     sf_runtime:sf_runtime.dll
 0002:000004a0       __imp_sf_mex_error_message 00000001800664a0     sf_runtime:sf_runtime.dll
 0002:000004a8       __imp_ssSetBlockIsPurelyCombinatorial_wrapper 00000001800664a8     sf_runtime:sf_runtime.dll
 0002:000004b0       __imp_sf_register_codegen_names_for_scoped_functions_defined_by_chart 00000001800664b0     sf_runtime:sf_runtime.dll
 0002:000004b8       __imp_sf_set_chart_accesses_machine_info 00000001800664b8     sf_runtime:sf_runtime.dll
 0002:000004c0       __imp_sf_is_first_init_cond 00000001800664c0     sf_runtime:sf_runtime.dll
 0002:000004c8       __imp_sf_get_time          00000001800664c8     sf_runtime:sf_runtime.dll
 0002:000004d0       __imp_sf_set_rtw_dwork_info 00000001800664d0     sf_runtime:sf_runtime.dll
 0002:000004d8       __imp_sf_clear_rtw_identifier 00000001800664d8     sf_runtime:sf_runtime.dll
 0002:000004e0       __imp_sim_mode_is_modelref_sim 00000001800664e0     sf_runtime:sf_runtime.dll
 0002:000004e8       __imp_sim_mode_is_external 00000001800664e8     sf_runtime:sf_runtime.dll
 0002:000004f0       __imp_sim_mode_is_rtw_gen  00000001800664f0     sf_runtime:sf_runtime.dll
 0002:000004f8       __imp_sf_mark_chart_expressionable_inputs 00000001800664f8     sf_runtime:sf_runtime.dll
 0002:00000500       __imp_sf_mark_chart_reusable_outputs 0000000180066500     sf_runtime:sf_runtime.dll
 0002:00000508       __imp_sf_is_chart_inlinable 0000000180066508     sf_runtime:sf_runtime.dll
 0002:00000510       __imp_sf_update_buildInfo  0000000180066510     sf_runtime:sf_runtime.dll
 0002:00000518       __imp_sf_rtw_info_uint_prop 0000000180066518     sf_runtime:sf_runtime.dll
 0002:00000520       __imp_sf_get_chart_instance_ptr 0000000180066520     sf_runtime:sf_runtime.dll
 0002:00000528       __imp_sfrtGetEmlrtCtx      0000000180066528     sf_runtime:sf_runtime.dll
 0002:00000530       __imp_sf_free_ChartRunTimeInfo 0000000180066530     sf_runtime:sf_runtime.dll
 0002:00000538       __imp_sf_init_ChartRunTimeInfo 0000000180066538     sf_runtime:sf_runtime.dll
 0002:00000540       __imp_sf_debug_set_machine_data_thresholds 0000000180066540     sf_runtime:sf_runtime.dll
 0002:00000548       __imp_sf_debug_set_machine_event_thresholds 0000000180066548     sf_runtime:sf_runtime.dll
 0002:00000550       __imp_sf_debug_initialize_machine 0000000180066550     sf_runtime:sf_runtime.dll
 0002:00000558       __imp_sf_load_rtw_optimization_info 0000000180066558     sf_runtime:sf_runtime.dll
 0002:00000560       __imp_sf_debug_set_chart_disable_implicit_casting 0000000180066560     sf_runtime:sf_runtime.dll
 0002:00000568       \177sf_runtime_NULL_THUNK_DATA 0000000180066568     sf_runtime:sf_runtime.dll
 0002:00000570       __guard_check_icall_fptr   0000000180066570     MSVCRT:guard_support.obj
 0002:00000578       __guard_dispatch_icall_fptr 0000000180066578     MSVCRT:guard_support.obj
 0002:00000580       __xc_a                     0000000180066580     MSVCRT:initializers.obj
 0002:00000588       __xc_z                     0000000180066588     MSVCRT:initializers.obj
 0002:00000590       __xi_a                     0000000180066590     MSVCRT:initializers.obj
 0002:00000598       __xi_z                     0000000180066598     MSVCRT:initializers.obj
 0002:000005a0       __xp_a                     00000001800665a0     MSVCRT:initializers.obj
 0002:000005a8       __xp_z                     00000001800665a8     MSVCRT:initializers.obj
 0002:000005b0       __xt_a                     00000001800665b0     MSVCRT:initializers.obj
 0002:000005b8       __xt_z                     00000001800665b8     MSVCRT:initializers.obj
 0002:000005c0       __real@41bbb84eaa000000    00000001800665c0     FLWSim_sfun.obj
 0002:000005c8       __real@41c25274bf800000    00000001800665c8     FLWSim_sfun.obj
 0002:000005d0       __real@41c2df2477000000    00000001800665d0     FLWSim_sfun.obj
 0002:000005d8       __real@41d4c87ca0000000    00000001800665d8     FLWSim_sfun.obj
 0002:000005e0       __real@41d506fd88400000    00000001800665e0     FLWSim_sfun.obj
 0002:000005e8       __real@41d90e2422800000    00000001800665e8     FLWSim_sfun.obj
 0002:000005f0       __real@41de26d842c00000    00000001800665f0     FLWSim_sfun.obj
 0002:000005f8       __real@41e320ec1ba00000    00000001800665f8     FLWSim_sfun.obj
 0002:00000600       __real@41e76a7a06600000    0000000180066600     FLWSim_sfun.obj
 0002:00000608       __real@41e8b869dda00000    0000000180066608     FLWSim_sfun.obj
 0002:00000610       __real@41eb0e46f0c00000    0000000180066610     FLWSim_sfun.obj
 0002:00000618       __real@41ef640786000000    0000000180066618     FLWSim_sfun.obj
 0002:00000620       __real@3ff0000000000000    0000000180066620     c1_FLWSim.obj
 0002:00000628       __real@4008000000000000    0000000180066628     c1_FLWSim.obj
 0002:00000630       __real@4018000000000000    0000000180066630     c1_FLWSim.obj
 0002:00000638       __real@4024000000000000    0000000180066638     c1_FLWSim.obj
 0002:00000640       __real@402c000000000000    0000000180066640     c1_FLWSim.obj
 0002:00000648       __real@408f400000000000    0000000180066648     c1_FLWSim.obj
 0002:00000650       __real@40c3880000000000    0000000180066650     c1_FLWSim.obj
 0002:00000658       __real@40ed4c0000000000    0000000180066658     c1_FLWSim.obj
 0002:00000660       __real@41b028f2f6000000    0000000180066660     c1_FLWSim.obj
 0002:00000668       __real@41daa2f45ac00000    0000000180066668     c1_FLWSim.obj
 0002:00000670       __real@41dbc4909d000000    0000000180066670     c1_FLWSim.obj
 0002:00000678       __real@41ebc56dfd800000    0000000180066678     c1_FLWSim.obj
 0002:00000680       __xmm@80000000000000008000000000000000 0000000180066680     c1_FLWSim.obj
 0002:00000690       __real@0000000000000000    0000000180066690     c2_FLWSim.obj
 0002:00000698       __real@3cb0000000000000    0000000180066698     c2_FLWSim.obj
 0002:000006a0       __real@4000000000000000    00000001800666a0     c2_FLWSim.obj
 0002:000006a8       __real@4010000000000000    00000001800666a8     c2_FLWSim.obj
 0002:000006b0       __real@41cb5283d5800000    00000001800666b0     c2_FLWSim.obj
 0002:000006b8       __real@41ec7f916b800000    00000001800666b8     c2_FLWSim.obj
 0002:000006c0       __real@41ed89ea83800000    00000001800666c0     c2_FLWSim.obj
 0002:000006c8       __real@41ef750d7e000000    00000001800666c8     c2_FLWSim.obj
 0002:000006d0       __real@3fd6666666666666    00000001800666d0     c3_FLWSim.obj
 0002:000006d8       __real@3fd999999999999a    00000001800666d8     c3_FLWSim.obj
 0002:000006e0       __real@3fe0000000000000    00000001800666e0     c3_FLWSim.obj
 0002:000006e8       __real@3fe3333333333333    00000001800666e8     c3_FLWSim.obj
 0002:000006f0       __real@4004000000000000    00000001800666f0     c3_FLWSim.obj
 0002:000006f8       __real@4049000000000000    00000001800666f8     c3_FLWSim.obj
 0002:00000700       __real@4079000000000000    0000000180066700     c3_FLWSim.obj
 0002:00000708       __real@41bd4db749000000    0000000180066708     c3_FLWSim.obj
 0002:00000710       __real@41cd761bf9000000    0000000180066710     c3_FLWSim.obj
 0002:00000718       __real@41d8d70b87800000    0000000180066718     c3_FLWSim.obj
 0002:00000720       __real@41eced1fa4800000    0000000180066720     c3_FLWSim.obj
 0002:00000728       __real@bfe0c152382d7365    0000000180066728     c3_FLWSim.obj
 0002:00000730       __real@bff0000000000000    0000000180066730     c3_FLWSim.obj
 0002:00000738       __real@c049000000000000    0000000180066738     c3_FLWSim.obj
 0002:00000740       DYNAMIC_DIMENSION_DEF      0000000180066740     FLWSim_sfun_registry.obj
 0002:00000758       __real@41602cbca0000000    0000000180066758     FLWSim_sfun_registry.obj
 0002:00000760       __real@3fceb851eb851eb8    0000000180066760     CoriolisTerm_src.obj
 0002:00000768       __real@3fd89374bc6a7efa    0000000180066768     CoriolisTerm_src.obj
 0002:00000770       __real@3fe7ef9db22d0e56    0000000180066770     CoriolisTerm_src.obj
 0002:00000778       __real@40070a3d70a3d70a    0000000180066778     CoriolisTerm_src.obj
 0002:00000780       __real@400999999999999a    0000000180066780     CoriolisTerm_src.obj
 0002:00000788       __real@401999999999999a    0000000180066788     CoriolisTerm_src.obj
 0002:00000790       __real@401b333333333333    0000000180066790     CoriolisTerm_src.obj
 0002:00000798       __real@402b333333333333    0000000180066798     CoriolisTerm_src.obj
 0002:000007a0       __real@bfbc28f5c28f5c29    00000001800667a0     CoriolisTerm_src.obj
 0002:000007a8       __real@bfceb851eb851eb8    00000001800667a8     CoriolisTerm_src.obj
 0002:000007b0       __real@bfd89374bc6a7efa    00000001800667b0     CoriolisTerm_src.obj
 0002:000007b8       __real@bfd999999999999a    00000001800667b8     CoriolisTerm_src.obj
 0002:000007c0       __real@bfe0000000000000    00000001800667c0     CoriolisTerm_src.obj
 0002:000007c8       __real@bfe47ae147ae147b    00000001800667c8     CoriolisTerm_src.obj
 0002:000007d0       __real@bfe7ef9db22d0e56    00000001800667d0     CoriolisTerm_src.obj
 0002:000007d8       __real@c0070a3d70a3d70a    00000001800667d8     CoriolisTerm_src.obj
 0002:000007e0       __real@c00999999999999a    00000001800667e0     CoriolisTerm_src.obj
 0002:000007e8       __real@c01999999999999a    00000001800667e8     CoriolisTerm_src.obj
 0002:000007f0       __real@c01b333333333333    00000001800667f0     CoriolisTerm_src.obj
 0002:000007f8       __real@c02b333333333333    00000001800667f8     CoriolisTerm_src.obj
 0002:00000800       __real@3fe47ae147ae147b    0000000180066800     GravityVector_src.obj
 0002:00000808       __real@403c40b780346dc5    0000000180066808     GravityVector_src.obj
 0002:00000810       __real@403f645a1cac0832    0000000180066810     GravityVector_src.obj
 0002:00000818       __real@40739eb851eb851f    0000000180066818     GravityVector_src.obj
 0002:00000820       __real@c01d59fd36f7e3d2    0000000180066820     GravityVector_src.obj
 0002:00000828       __real@3fc999999999999a    0000000180066828     InertiaMatrix_src.obj
 0002:00000830       __real@3fd898b2e9ccb7d4    0000000180066830     InertiaMatrix_src.obj
 0002:00000838       __real@3fe570a3d70a3d71    0000000180066838     InertiaMatrix_src.obj
 0002:00000840       __real@3fe812ad81adea89    0000000180066840     InertiaMatrix_src.obj
 0002:00000848       __real@400ae3bcd35a8588    0000000180066848     InertiaMatrix_src.obj
 0002:00000850       __real@4028000000000000    0000000180066850     InertiaMatrix_src.obj
 0002:00000858       __real@bfe89374bc6a7efa    0000000180066858     InertiaMatrix_src.obj
 0002:00000860       __real@3fde147ae147ae14    0000000180066860     AMBody_LeftThigh_src.obj
 0002:00000868       __real@3ff547ae147ae148    0000000180066868     AMBody_torso_src.obj
 0002:00000870       __real@bfe999999999999a    0000000180066870     dJb_LeftToe_src.obj
 0002:00000878       __real@3fe999999999999a    0000000180066878     dJp_LeftToe_src.obj
 0002:00000880       __real@3fbc28f5c28f5c29    0000000180066880     dT_LeftThigh_src.obj
 0002:00000898       _pDefaultRawDllMain        0000000180066898     MSVCRT:dll_dllmain.obj
 0002:00000898       _pRawDllMain               0000000180066898     MSVCRT:dll_dllmain.obj
 0002:000008c0       _load_config_used          00000001800668c0     MSVCRT:loadcfg.obj
 0002:00000b80       __rtc_iaa                  0000000180066b80     MSVCRT:_initsect_.obj
 0002:00000b88       __rtc_izz                  0000000180066b88     MSVCRT:_initsect_.obj
 0002:00000b90       __rtc_taa                  0000000180066b90     MSVCRT:_initsect_.obj
 0002:00000b98       __rtc_tzz                  0000000180066b98     MSVCRT:_initsect_.obj
 0002:00002568       __IMPORT_DESCRIPTOR_libmwblas 0000000180068568     libmwblas:libmwblas.dll
 0002:0000257c       __IMPORT_DESCRIPTOR_sf_runtime 000000018006857c     sf_runtime:sf_runtime.dll
 0002:00002590       __IMPORT_DESCRIPTOR_libmx  0000000180068590     libmx:libmx.dll
 0002:000025a4       __IMPORT_DESCRIPTOR_libmex 00000001800685a4     libmex:libmex.dll
 0002:000025b8       __IMPORT_DESCRIPTOR_libut  00000001800685b8     libut:libut.dll
 0002:000025cc       __IMPORT_DESCRIPTOR_libmwmathutil 00000001800685cc     libmwmathutil:libmwmathutil.dll
 0002:000025e0       __IMPORT_DESCRIPTOR_libemlrt 00000001800685e0     libemlrt:libemlrt.dll
 0002:000025f4       __IMPORT_DESCRIPTOR_KERNEL32 00000001800685f4     kernel32:KERNEL32.dll
 0002:00002608       __IMPORT_DESCRIPTOR_VCRUNTIME140 0000000180068608     vcruntime:VCRUNTIME140.dll
 0002:0000261c       __IMPORT_DESCRIPTOR_api-ms-win-crt-string-l1-1-0 000000018006861c     ucrt:api-ms-win-crt-string-l1-1-0.dll
 0002:00002630       __IMPORT_DESCRIPTOR_api-ms-win-crt-stdio-l1-1-0 0000000180068630     ucrt:api-ms-win-crt-stdio-l1-1-0.dll
 0002:00002644       __IMPORT_DESCRIPTOR_api-ms-win-crt-heap-l1-1-0 0000000180068644     ucrt:api-ms-win-crt-heap-l1-1-0.dll
 0002:00002658       __IMPORT_DESCRIPTOR_api-ms-win-crt-math-l1-1-0 0000000180068658     ucrt:api-ms-win-crt-math-l1-1-0.dll
 0002:0000266c       __IMPORT_DESCRIPTOR_api-ms-win-crt-runtime-l1-1-0 000000018006866c     ucrt:api-ms-win-crt-runtime-l1-1-0.dll
 0002:00002680       __NULL_IMPORT_DESCRIPTOR   0000000180068680     libmwblas:libmwblas.dll
 0003:00006b78       DYNAMIC_DIMENSION          0000000180070b78     FLWSim_sfun_registry.obj
 0003:00007830       __security_cookie          0000000180071830     MSVCRT:gs_cookie.obj
 0003:00007838       __security_cookie_complement 0000000180071838     MSVCRT:gs_cookie.obj
 0003:00007840       _fltused                   0000000180071840     MSVCRT:dllsupp.obj
 0003:00007850       __scrt_native_dllmain_reason 0000000180071850     MSVCRT:utility.obj
 0003:00007858       __isa_available            0000000180071858     MSVCRT:_cpu_disp_.obj
 0003:0000785c       __isa_enabled              000000018007185c     MSVCRT:_cpu_disp_.obj
 0003:00007860       __memcpy_nt_iters          0000000180071860     MSVCRT:_cpu_disp_.obj
 0003:00007870       __scrt_ucrt_dll_is_in_use  0000000180071870     MSVCRT:ucrt_stubs.obj
 0003:000078c0       sfGlobalDebugInstanceStruct 00000001800718c0     FLWSim_sfun_registry.obj
 0003:00008e48       __scrt_current_native_startup_state 0000000180072e48     MSVCRT:utility.obj
 0003:00008e50       __scrt_native_startup_lock 0000000180072e50     MSVCRT:utility.obj
 0003:00008e90       ?__type_info_root_node@@3U__type_info_node@@A 0000000180072e90     MSVCRT:tncleanup.obj
 0003:00008ea0       ?_OptionsStorage@?1??__local_stdio_printf_options@@9@4_KA 0000000180072ea0     MSVCRT:default_local_stdio_options.obj
 0003:00008ea8       ?_OptionsStorage@?1??__local_stdio_scanf_options@@9@4_KA 0000000180072ea8     MSVCRT:default_local_stdio_options.obj
 0003:00008eb0       __scrt_debugger_hook_flag  0000000180072eb0     MSVCRT:utility_desktop.obj
 0003:00008eb4       __favor                    0000000180072eb4     MSVCRT:_cpu_disp_.obj
 0003:00008eb8       ?_OptionsStorage@?1??__local_stdio_printf_options@@9@9 0000000180072eb8     <common>
 0003:00008ec0       _FLWSimMachineNumber_      0000000180072ec0     <common>
 0003:00008ec8       __dyn_tls_init_callback    0000000180072ec8     <common>

 entry point at        0001:00063408

 Static symbols

 0000:00000000       .debug$S                   0000000180000000     sf_runtime:sf_runtime.dll
 0000:00000000       .debug$S                   0000000180000000     FLWSim_sfun.exp
 0000:00000000       .debug$S                   0000000180000000     sf_runtime:sf_runtime.dll
 0004:fff8d000       $pdata$Cos                 0000000180000000     dR_RightToe_src.obj
 0002:fff9a000       $unwind$Cos                0000000180000000     dR_RightToe_src.obj
 0004:fff8d000       $pdata$Sin                 0000000180000000     dR_RightToe_src.obj
 0002:fff9a000       $unwind$Sin                0000000180000000     dR_RightToe_src.obj
 0000:00000000       .debug$S                   0000000180000000     sf_runtime:sf_runtime.dll
 0002:fff9a000       $unwind$Sin                0000000180000000     dR_RightThigh_src.obj
 0004:fff8d000       $pdata$Sin                 0000000180000000     dR_RightThigh_src.obj
 0000:00000000       .debug$S                   0000000180000000     ucrt:api-ms-win-crt-heap-l1-1-0.dll
 0002:fff9a000       $unwind$Sin                0000000180000000     T_torso_src.obj
 0004:fff8d000       $pdata$Sin                 0000000180000000     T_torso_src.obj
 0002:fff9a000       $unwind$Cos                0000000180000000     T_torso_src.obj
 0004:fff8d000       $pdata$Cos                 0000000180000000     T_torso_src.obj
 0000:00000000       .debug$S                   0000000180000000     sf_runtime:sf_runtime.dll
 0000:00000000       .debug$S                   0000000180000000     ucrt:api-ms-win-crt-heap-l1-1-0.dll
 0002:fff9a000       $unwind$Cos                0000000180000000     dR_RightThigh_src.obj
 0004:fff8d000       $pdata$Cos                 0000000180000000     dR_torso_src.obj
 0000:00000000       .debug$S                   0000000180000000     ucrt:api-ms-win-crt-math-l1-1-0.dll
 0002:fff9a000       $unwind$Sin                0000000180000000     T_RightToe_src.obj
 0004:fff8d000       $pdata$Sin                 0000000180000000     T_RightToe_src.obj
 0002:fff9a000       $unwind$Cos                0000000180000000     T_RightToe_src.obj
 0004:fff8d000       $pdata$Cos                 0000000180000000     T_RightToe_src.obj
 0002:fff9a000       $unwind$Cos                0000000180000000     dR_torso_src.obj
 0000:00000000       .debug$S                   0000000180000000     ucrt:api-ms-win-crt-math-l1-1-0.dll
 0004:fff8d000       $pdata$Sin                 0000000180000000     dR_torso_src.obj
 0002:fff9a000       $unwind$Sin                0000000180000000     dR_torso_src.obj
 0000:00000000       .debug$S                   0000000180000000     ucrt:api-ms-win-crt-math-l1-1-0.dll
 0002:fff9a000       $unwind$Sin                0000000180000000     T_RightThigh_src.obj
 0004:fff8d000       $pdata$Sin                 0000000180000000     T_RightThigh_src.obj
 0002:fff9a000       $unwind$Cos                0000000180000000     T_RightThigh_src.obj
 0004:fff8d000       $pdata$Cos                 0000000180000000     T_RightThigh_src.obj
 0000:00000000       .debug$S                   0000000180000000     sf_runtime:sf_runtime.dll
 0000:00000000       .debug$S                   0000000180000000     ucrt:api-ms-win-crt-runtime-l1-1-0.dll
 0004:fff8d000       $pdata$Cos                 0000000180000000     dR_RightThigh_src.obj
 0000:00000000       .debug$S                   0000000180000000     sf_runtime:sf_runtime.dll
 0000:00000000       .debug$S                   0000000180000000     ucrt:api-ms-win-crt-runtime-l1-1-0.dll
 0002:fff9a000       $unwind$Sin                0000000180000000     T_RightShin_src.obj
 0004:fff8d000       $pdata$Sin                 0000000180000000     T_RightShin_src.obj
 0002:fff9a000       $unwind$Cos                0000000180000000     T_RightShin_src.obj
 0004:fff8d000       $pdata$Cos                 0000000180000000     T_RightShin_src.obj
 0000:00000000       .debug$S                   0000000180000000     sf_runtime:sf_runtime.dll
 0000:00000000       .debug$S                   0000000180000000     ucrt:api-ms-win-crt-runtime-l1-1-0.dll
 0000:00000000       .debug$S                   0000000180000000     sf_runtime:sf_runtime.dll
 0004:fff8d000       $pdata$Cos                 0000000180000000     dT_Head_src.obj
 0000:00000000       .debug$S                   0000000180000000     ucrt:api-ms-win-crt-runtime-l1-1-0.dll
 0002:fff9a000       $unwind$Sin                0000000180000000     T_RightKnee_src.obj
 0004:fff8d000       $pdata$Sin                 0000000180000000     T_RightKnee_src.obj
 0002:fff9a000       $unwind$Cos                0000000180000000     T_RightKnee_src.obj
 0004:fff8d000       $pdata$Cos                 0000000180000000     T_RightKnee_src.obj
 0002:fff9a000       $unwind$Cos                0000000180000000     dT_Head_src.obj
 0000:00000000       .debug$S                   0000000180000000     ucrt:api-ms-win-crt-runtime-l1-1-0.dll
 0004:fff8d000       $pdata$Sin                 0000000180000000     dT_Head_src.obj
 0002:fff9a000       $unwind$Sin                0000000180000000     dT_Head_src.obj
 0000:00000000       .debug$S                   0000000180000000     ucrt:api-ms-win-crt-runtime-l1-1-0.dll
 0002:fff9a000       $unwind$Sin                0000000180000000     T_RightHip_src.obj
 0004:fff8d000       $pdata$Sin                 0000000180000000     T_RightHip_src.obj
 0002:fff9a000       $unwind$Cos                0000000180000000     T_RightHip_src.obj
 0004:fff8d000       $pdata$Cos                 0000000180000000     T_RightHip_src.obj
 0000:00000000       .debug$S                   0000000180000000     sf_runtime:sf_runtime.dll
 0000:00000000       .debug$S                   0000000180000000     ucrt:api-ms-win-crt-runtime-l1-1-0.dll
 0002:fff9a000       $unwind$Sin                0000000180000000     dR_RightShin_src.obj
 0004:fff8d000       $pdata$Sin                 0000000180000000     dR_RightShin_src.obj
 0000:00000000       .debug$S                   0000000180000000     ucrt:api-ms-win-crt-runtime-l1-1-0.dll
 0002:fff9a000       $unwind$Sin                0000000180000000     T_LeftToe_src.obj
 0004:fff8d000       $pdata$Sin                 0000000180000000     T_LeftToe_src.obj
 0002:fff9a000       $unwind$Cos                0000000180000000     T_LeftToe_src.obj
 0004:fff8d000       $pdata$Cos                 0000000180000000     T_LeftToe_src.obj
 0000:00000000       .debug$S                   0000000180000000     sf_runtime:sf_runtime.dll
 0000:00000000       .debug$S                   0000000180000000     ucrt:api-ms-win-crt-runtime-l1-1-0.dll
 0002:fff9a000       $unwind$Cos                0000000180000000     dR_RightShin_src.obj
 0004:fff8d000       $pdata$Cos                 0000000180000000     dT_LeftHip_src.obj
 0000:00000000       .debug$S                   0000000180000000     ucrt:api-ms-win-crt-runtime-l1-1-0.dll
 0002:fff9a000       $unwind$Sin                0000000180000000     T_LeftThigh_src.obj
 0004:fff8d000       $pdata$Sin                 0000000180000000     T_LeftThigh_src.obj
 0002:fff9a000       $unwind$Cos                0000000180000000     T_LeftThigh_src.obj
 0004:fff8d000       $pdata$Cos                 0000000180000000     T_LeftThigh_src.obj
 0002:fff9a000       $unwind$Cos                0000000180000000     dT_LeftHip_src.obj
 0000:00000000       .debug$S                   0000000180000000     ucrt:api-ms-win-crt-runtime-l1-1-0.dll
 0004:fff8d000       $pdata$Sin                 0000000180000000     dT_LeftHip_src.obj
 0002:fff9a000       $unwind$Sin                0000000180000000     dT_LeftHip_src.obj
 0000:00000000       .debug$S                   0000000180000000     ucrt:api-ms-win-crt-runtime-l1-1-0.dll
 0002:fff9a000       $unwind$Sin                0000000180000000     T_LeftShin_src.obj
 0004:fff8d000       $pdata$Sin                 0000000180000000     T_LeftShin_src.obj
 0002:fff9a000       $unwind$Cos                0000000180000000     T_LeftShin_src.obj
 0004:fff8d000       $pdata$Cos                 0000000180000000     T_LeftShin_src.obj
 0000:00000000       .debug$S                   0000000180000000     sf_runtime:sf_runtime.dll
 0004:fff8d000       $pdata$Cos                 0000000180000000     dR_RightShin_src.obj
 0000:00000000       .debug$S                   0000000180000000     sf_runtime:sf_runtime.dll
 0000:00000000       .debug$S                   0000000180000000     sf_runtime:sf_runtime.dll
 0000:00000000       .debug$S                   0000000180000000     ucrt:api-ms-win-crt-stdio-l1-1-0.dll
 0002:fff9a000       $unwind$Sin                0000000180000000     T_LeftKnee_src.obj
 0004:fff8d000       $pdata$Sin                 0000000180000000     T_LeftKnee_src.obj
 0002:fff9a000       $unwind$Cos                0000000180000000     T_LeftKnee_src.obj
 0004:fff8d000       $pdata$Cos                 0000000180000000     T_LeftKnee_src.obj
 0000:00000000       .debug$S                   0000000180000000     sf_runtime:sf_runtime.dll
 0004:fff8d000       $pdata$Cos                 0000000180000000     dT_LeftKnee_src.obj
 0002:fff9a000       $unwind$Cos                0000000180000000     dT_LeftKnee_src.obj
 0004:fff8d000       $pdata$Sin                 0000000180000000     dT_LeftKnee_src.obj
 0000:00000000       .debug$S                   0000000180000000     ucrt:api-ms-win-crt-string-l1-1-0.dll
 0002:fff9a000       $unwind$Sin                0000000180000000     T_LeftHip_src.obj
 0004:fff8d000       $pdata$Sin                 0000000180000000     T_LeftHip_src.obj
 0002:fff9a000       $unwind$Cos                0000000180000000     T_LeftHip_src.obj
 0004:fff8d000       $pdata$Cos                 0000000180000000     T_LeftHip_src.obj
 0002:fff9a000       $unwind$Sin                0000000180000000     dT_LeftKnee_src.obj
 0000:00000000       .debug$S                   0000000180000000     ucrt:api-ms-win-crt-string-l1-1-0.dll
 0000:00000000       .debug$S                   0000000180000000     sf_runtime:sf_runtime.dll
 0002:fff9a000       $unwind$Sin                0000000180000000     dR_RightKnee_src.obj
 0004:fff8d000       $pdata$Sin                 0000000180000000     dR_RightKnee_src.obj
 0002:fff9a000       $unwind$Sin                0000000180000000     T_Head_src.obj
 0004:fff8d000       $pdata$Sin                 0000000180000000     T_Head_src.obj
 0002:fff9a000       $unwind$Cos                0000000180000000     T_Head_src.obj
 0004:fff8d000       $pdata$Cos                 0000000180000000     T_Head_src.obj
 0000:00000000       .debug$S                   0000000180000000     sf_runtime:sf_runtime.dll
 0000:00000000       .debug$S                   0000000180000000     vcruntime:VCRUNTIME140.dll
 0002:fff9a000       $unwind$Cos                0000000180000000     dR_RightKnee_src.obj
 0004:fff8d000       $pdata$Cos                 0000000180000000     dT_LeftShin_src.obj
 0000:00000000       .debug$S                   0000000180000000     vcruntime:VCRUNTIME140.dll
 0002:fff9a000       $unwind$Sin                0000000180000000     R_torso_src.obj
 0004:fff8d000       $pdata$Sin                 0000000180000000     R_torso_src.obj
 0002:fff9a000       $unwind$Cos                0000000180000000     R_torso_src.obj
 0004:fff8d000       $pdata$Cos                 0000000180000000     R_torso_src.obj
 0002:fff9a000       $unwind$Cos                0000000180000000     dT_LeftShin_src.obj
 0000:00000000       .debug$S                   0000000180000000     vcruntime:VCRUNTIME140.dll
 0004:fff8d000       $pdata$Sin                 0000000180000000     dT_LeftShin_src.obj
 0002:fff9a000       $unwind$Sin                0000000180000000     dT_LeftShin_src.obj
 0000:00000000       .debug$S                   0000000180000000     vcruntime:VCRUNTIME140.dll
 0002:fff9a000       $unwind$Sin                0000000180000000     R_RightToe_src.obj
 0004:fff8d000       $pdata$Sin                 0000000180000000     R_RightToe_src.obj
 0002:fff9a000       $unwind$Cos                0000000180000000     R_RightToe_src.obj
 0004:fff8d000       $pdata$Cos                 0000000180000000     R_RightToe_src.obj
 0000:00000000       .debug$S                   0000000180000000     sf_runtime:sf_runtime.dll
 0004:fff8d000       $pdata$Cos                 0000000180000000     dR_RightKnee_src.obj
 0000:00000000       .debug$S                   0000000180000000     sf_runtime:sf_runtime.dll
 0000:00000000       .debug$S                   0000000180000000     sf_runtime:sf_runtime.dll
 0000:00000000       .debug$S                   0000000180000000     kernel32:KERNEL32.dll
 0002:fff9a000       $unwind$Sin                0000000180000000     R_RightThigh_src.obj
 0004:fff8d000       $pdata$Sin                 0000000180000000     R_RightThigh_src.obj
 0002:fff9a000       $unwind$Cos                0000000180000000     R_RightThigh_src.obj
 0004:fff8d000       $pdata$Cos                 0000000180000000     R_RightThigh_src.obj
 0000:00000000       .debug$S                   0000000180000000     sf_runtime:sf_runtime.dll
 0000:00000000       .debug$S                   0000000180000000     kernel32:KERNEL32.dll
 0004:fff8d000       $pdata$Cos                 0000000180000000     dT_LeftThigh_src.obj
 0002:fff9a000       $unwind$Cos                0000000180000000     dT_LeftThigh_src.obj
 0000:00000000       .debug$S                   0000000180000000     kernel32:KERNEL32.dll
 0002:fff9a000       $unwind$Sin                0000000180000000     R_RightShin_src.obj
 0004:fff8d000       $pdata$Sin                 0000000180000000     R_RightShin_src.obj
 0002:fff9a000       $unwind$Cos                0000000180000000     R_RightShin_src.obj
 0004:fff8d000       $pdata$Cos                 0000000180000000     R_RightShin_src.obj
 0004:fff8d000       $pdata$Sin                 0000000180000000     dT_LeftThigh_src.obj
 0000:00000000       .debug$S                   0000000180000000     kernel32:KERNEL32.dll
 0002:fff9a000       $unwind$Sin                0000000180000000     dT_LeftThigh_src.obj
 0000:00000000       .debug$S                   0000000180000000     sf_runtime:sf_runtime.dll
 0000:00000000       .debug$S                   0000000180000000     kernel32:KERNEL32.dll
 0002:fff9a000       $unwind$Sin                0000000180000000     R_RightKnee_src.obj
 0004:fff8d000       $pdata$Sin                 0000000180000000     R_RightKnee_src.obj
 0002:fff9a000       $unwind$Cos                0000000180000000     R_RightKnee_src.obj
 0004:fff8d000       $pdata$Cos                 0000000180000000     R_RightKnee_src.obj
 0002:fff9a000       $unwind$Sin                0000000180000000     dR_RightHip_src.obj
 0000:00000000       .debug$S                   0000000180000000     kernel32:KERNEL32.dll
 0004:fff8d000       $pdata$Sin                 0000000180000000     dR_RightHip_src.obj
 0000:00000000       .debug$S                   0000000180000000     sf_runtime:sf_runtime.dll
 0000:00000000       .debug$S                   0000000180000000     kernel32:KERNEL32.dll
 0002:fff9a000       $unwind$Sin                0000000180000000     R_RightHip_src.obj
 0004:fff8d000       $pdata$Sin                 0000000180000000     R_RightHip_src.obj
 0002:fff9a000       $unwind$Cos                0000000180000000     R_RightHip_src.obj
 0004:fff8d000       $pdata$Cos                 0000000180000000     R_RightHip_src.obj
 0002:fff9a000       $unwind$Cos                0000000180000000     dR_RightHip_src.obj
 0000:00000000       .debug$S                   0000000180000000     kernel32:KERNEL32.dll
 0004:fff8d000       $pdata$Cos                 0000000180000000     dT_LeftToe_src.obj
 0002:fff9a000       $unwind$Cos                0000000180000000     dT_LeftToe_src.obj
 0000:00000000       .debug$S                   0000000180000000     kernel32:KERNEL32.dll
 0002:fff9a000       $unwind$Sin                0000000180000000     R_LeftToe_src.obj
 0004:fff8d000       $pdata$Sin                 0000000180000000     R_LeftToe_src.obj
 0002:fff9a000       $unwind$Cos                0000000180000000     R_LeftToe_src.obj
 0004:fff8d000       $pdata$Cos                 0000000180000000     R_LeftToe_src.obj
 0004:fff8d000       $pdata$Sin                 0000000180000000     dT_LeftToe_src.obj
 0000:00000000       .debug$S                   0000000180000000     kernel32:KERNEL32.dll
 0002:fff9a000       $unwind$Sin                0000000180000000     dT_LeftToe_src.obj
 0000:00000000       .debug$S                   0000000180000000     sf_runtime:sf_runtime.dll
 0000:00000000       .debug$S                   0000000180000000     kernel32:KERNEL32.dll
 0002:fff9a000       $unwind$Sin                0000000180000000     R_LeftThigh_src.obj
 0004:fff8d000       $pdata$Sin                 0000000180000000     R_LeftThigh_src.obj
 0002:fff9a000       $unwind$Cos                0000000180000000     R_LeftThigh_src.obj
 0004:fff8d000       $pdata$Cos                 0000000180000000     R_LeftThigh_src.obj
 0004:fff8d000       $pdata$Cos                 0000000180000000     dR_RightHip_src.obj
 0000:00000000       .debug$S                   0000000180000000     kernel32:KERNEL32.dll
 0000:00000000       .debug$S                   0000000180000000     sf_runtime:sf_runtime.dll
 0000:00000000       .debug$S                   0000000180000000     sf_runtime:sf_runtime.dll
 0000:00000000       .debug$S                   0000000180000000     kernel32:KERNEL32.dll
 0002:fff9a000       $unwind$Sin                0000000180000000     R_LeftShin_src.obj
 0004:fff8d000       $pdata$Sin                 0000000180000000     R_LeftShin_src.obj
 0002:fff9a000       $unwind$Cos                0000000180000000     R_LeftShin_src.obj
 0004:fff8d000       $pdata$Cos                 0000000180000000     R_LeftShin_src.obj
 0000:00000000       .debug$S                   0000000180000000     sf_runtime:sf_runtime.dll
 0000:00000000       .debug$S                   0000000180000000     kernel32:KERNEL32.dll
 0004:fff8d000       $pdata$Cos                 0000000180000000     dT_RightHip_src.obj
 0002:fff9a000       $unwind$Cos                0000000180000000     dT_RightHip_src.obj
 0000:00000000       .debug$S                   0000000180000000     kernel32:KERNEL32.dll
 0002:fff9a000       $unwind$Sin                0000000180000000     R_LeftKnee_src.obj
 0004:fff8d000       $pdata$Sin                 0000000180000000     R_LeftKnee_src.obj
 0002:fff9a000       $unwind$Cos                0000000180000000     R_LeftKnee_src.obj
 0004:fff8d000       $pdata$Cos                 0000000180000000     R_LeftKnee_src.obj
 0004:fff8d000       $pdata$Sin                 0000000180000000     dT_RightHip_src.obj
 0000:00000000       .debug$S                   0000000180000000     kernel32:KERNEL32.dll
 0002:fff9a000       $unwind$Sin                0000000180000000     dT_RightHip_src.obj
 0002:fff9a000       $unwind$Sin                0000000180000000     dR_LeftToe_src.obj
 0000:00000000       .debug$S                   0000000180000000     kernel32:KERNEL32.dll
 0002:fff9a000       $unwind$Sin                0000000180000000     R_LeftHip_src.obj
 0004:fff8d000       $pdata$Sin                 0000000180000000     R_LeftHip_src.obj
 0002:fff9a000       $unwind$Cos                0000000180000000     R_LeftHip_src.obj
 0004:fff8d000       $pdata$Cos                 0000000180000000     R_LeftHip_src.obj
 0004:fff8d000       $pdata$Sin                 0000000180000000     dR_LeftToe_src.obj
 0002:fff9a000       $unwind$Cos                0000000180000000     dR_LeftToe_src.obj
 0000:00000000       .debug$S                   0000000180000000     libmx:libmx.dll
 0004:fff8d000       $pdata$Cos                 0000000180000000     dR_LeftToe_src.obj
 0004:fff8d000       $pdata$Cos                 0000000180000000     dT_RightKnee_src.obj
 0002:fff9a000       $unwind$Sin                0000000180000000     R_Head_src.obj
 0004:fff8d000       $pdata$Sin                 0000000180000000     R_Head_src.obj
 0002:fff9a000       $unwind$Cos                0000000180000000     R_Head_src.obj
 0004:fff8d000       $pdata$Cos                 0000000180000000     R_Head_src.obj
 0002:fff9a000       $unwind$Cos                0000000180000000     dT_RightKnee_src.obj
 0004:fff8d000       $pdata$Sin                 0000000180000000     dT_RightKnee_src.obj
 0002:fff9a000       $unwind$Sin                0000000180000000     dT_RightKnee_src.obj
 0000:00000000       .debug$S                   0000000180000000     libmx:libmx.dll
 0000:00000000       .debug$S                   0000000180000000     sf_runtime:sf_runtime.dll
 0002:fff9a000       $unwind$Sin                0000000180000000     p_torso_src.obj
 0004:fff8d000       $pdata$Sin                 0000000180000000     p_torso_src.obj
 0002:fff9a000       $unwind$Cos                0000000180000000     p_torso_src.obj
 0004:fff8d000       $pdata$Cos                 0000000180000000     p_torso_src.obj
 0000:00000000       .debug$S                   0000000180000000     sf_runtime:sf_runtime.dll
 0000:00000000       .debug$S                   0000000180000000     libmx:libmx.dll
 0002:fff9a000       $unwind$Sin                0000000180000000     dR_LeftThigh_src.obj
 0004:fff8d000       $pdata$Cos                 0000000180000000     dT_RightShin_src.obj
 0002:fff9a000       $unwind$Cos                0000000180000000     dT_RightShin_src.obj
 0002:fff9a000       $unwind$Sin                0000000180000000     p_RightToe_src.obj
 0004:fff8d000       $pdata$Sin                 0000000180000000     p_RightToe_src.obj
 0002:fff9a000       $unwind$Cos                0000000180000000     p_RightToe_src.obj
 0004:fff8d000       $pdata$Cos                 0000000180000000     p_RightToe_src.obj
 0004:fff8d000       $pdata$Sin                 0000000180000000     dT_RightShin_src.obj
 0002:fff9a000       $unwind$Sin                0000000180000000     dT_RightShin_src.obj
 0000:00000000       .debug$S                   0000000180000000     libmx:libmx.dll
 0004:fff8d000       $pdata$Sin                 0000000180000000     dR_LeftThigh_src.obj
 0002:fff9a000       $unwind$Cos                0000000180000000     dR_LeftThigh_src.obj
 0002:fff9a000       $unwind$Sin                0000000180000000     p_RightThigh_src.obj
 0004:fff8d000       $pdata$Sin                 0000000180000000     p_RightThigh_src.obj
 0002:fff9a000       $unwind$Cos                0000000180000000     p_RightThigh_src.obj
 0004:fff8d000       $pdata$Cos                 0000000180000000     p_RightThigh_src.obj
 0000:00000000       .debug$S                   0000000180000000     libmx:libmx.dll
 0004:fff8d000       $pdata$Cos                 0000000180000000     dR_LeftThigh_src.obj
 0004:fff8d000       $pdata$Cos                 0000000180000000     dT_RightThigh_src.obj
 0002:fff9a000       $unwind$Cos                0000000180000000     dT_RightThigh_src.obj
 0004:fff8d000       $pdata$Sin                 0000000180000000     dT_RightThigh_src.obj
 0002:fff9a000       $unwind$Sin                0000000180000000     p_RightShin_src.obj
 0004:fff8d000       $pdata$Sin                 0000000180000000     p_RightShin_src.obj
 0002:fff9a000       $unwind$Cos                0000000180000000     p_RightShin_src.obj
 0004:fff8d000       $pdata$Cos                 0000000180000000     p_RightShin_src.obj
 0002:fff9a000       $unwind$Sin                0000000180000000     dT_RightThigh_src.obj
 0000:00000000       .debug$S                   0000000180000000     libmx:libmx.dll
 0000:00000000       .debug$S                   0000000180000000     sf_runtime:sf_runtime.dll
 0000:00000000       .debug$S                   0000000180000000     sf_runtime:sf_runtime.dll
 0000:00000000       .debug$S                   0000000180000000     libmx:libmx.dll
 0002:fff9a000       $unwind$Sin                0000000180000000     p_RightKnee_src.obj
 0004:fff8d000       $pdata$Sin                 0000000180000000     p_RightKnee_src.obj
 0002:fff9a000       $unwind$Cos                0000000180000000     p_RightKnee_src.obj
 0004:fff8d000       $pdata$Cos                 0000000180000000     p_RightKnee_src.obj
 0002:fff9a000       $unwind$Sin                0000000180000000     dR_LeftShin_src.obj
 0004:fff8d000       $pdata$Cos                 0000000180000000     GravityVector_src.obj
 0002:fff9a000       $unwind$Cos                0000000180000000     GravityVector_src.obj
 0004:fff8d000       $pdata$Sin                 0000000180000000     GravityVector_src.obj
 0002:fff9a000       $unwind$Sin                0000000180000000     GravityVector_src.obj
 0004:fff8d000       $pdata$Cos                 0000000180000000     InertiaMatrix_src.obj
 0002:fff9a000       $unwind$Cos                0000000180000000     InertiaMatrix_src.obj
 0004:fff8d000       $pdata$Sin                 0000000180000000     InertiaMatrix_src.obj
 0002:fff9a000       $unwind$Sin                0000000180000000     p_LeftToe_src.obj
 0004:fff8d000       $pdata$Sin                 0000000180000000     p_LeftToe_src.obj
 0002:fff9a000       $unwind$Cos                0000000180000000     p_LeftToe_src.obj
 0004:fff8d000       $pdata$Cos                 0000000180000000     p_LeftToe_src.obj
 0002:fff9a000       $unwind$Sin                0000000180000000     InertiaMatrix_src.obj
 0004:fff8d000       $pdata$Power               0000000180000000     InertiaMatrix_src.obj
 0002:fff9a000       $unwind$Power              0000000180000000     InertiaMatrix_src.obj
 0004:fff8d000       $pdata$Cos                 0000000180000000     dJb_Head_src.obj
 0002:fff9a000       $unwind$Cos                0000000180000000     dJb_Head_src.obj
 0002:fff9a000       $unwind$Sin                0000000180000000     p_LeftThigh_src.obj
 0004:fff8d000       $pdata$Sin                 0000000180000000     p_LeftThigh_src.obj
 0002:fff9a000       $unwind$Cos                0000000180000000     p_LeftThigh_src.obj
 0004:fff8d000       $pdata$Cos                 0000000180000000     p_LeftThigh_src.obj
 0004:fff8d000       $pdata$Sin                 0000000180000000     dJb_Head_src.obj
 0002:fff9a000       $unwind$Sin                0000000180000000     dJb_Head_src.obj
 0004:fff8d000       $pdata$Cos                 0000000180000000     dJb_LeftHip_src.obj
 0002:fff9a000       $unwind$Cos                0000000180000000     dJb_LeftHip_src.obj
 0004:fff8d000       $pdata$Sin                 0000000180000000     dJb_LeftHip_src.obj
 0002:fff9a000       $unwind$Sin                0000000180000000     p_LeftShin_src.obj
 0004:fff8d000       $pdata$Sin                 0000000180000000     p_LeftShin_src.obj
 0002:fff9a000       $unwind$Cos                0000000180000000     p_LeftShin_src.obj
 0004:fff8d000       $pdata$Cos                 0000000180000000     p_LeftShin_src.obj
 0002:fff9a000       $unwind$Sin                0000000180000000     dJb_LeftHip_src.obj
 0004:fff8d000       $pdata$Cos                 0000000180000000     dJb_LeftKnee_src.obj
 0002:fff9a000       $unwind$Cos                0000000180000000     dJb_LeftKnee_src.obj
 0004:fff8d000       $pdata$Sin                 0000000180000000     dJb_LeftKnee_src.obj
 0002:fff9a000       $unwind$Sin                0000000180000000     dJb_LeftKnee_src.obj
 0002:fff9a000       $unwind$Sin                0000000180000000     p_LeftKnee_src.obj
 0004:fff8d000       $pdata$Sin                 0000000180000000     p_LeftKnee_src.obj
 0002:fff9a000       $unwind$Cos                0000000180000000     p_LeftKnee_src.obj
 0004:fff8d000       $pdata$Cos                 0000000180000000     p_LeftKnee_src.obj
 0004:fff8d000       $pdata$Cos                 0000000180000000     dJb_LeftShin_src.obj
 0002:fff9a000       $unwind$Cos                0000000180000000     dJb_LeftShin_src.obj
 0004:fff8d000       $pdata$Sin                 0000000180000000     dJb_LeftShin_src.obj
 0002:fff9a000       $unwind$Sin                0000000180000000     dJb_LeftShin_src.obj
 0004:fff8d000       $pdata$Power               0000000180000000     dJb_LeftShin_src.obj
 0002:fff9a000       $unwind$Power              0000000180000000     dJb_LeftShin_src.obj
 0004:fff8d000       $pdata$Cos                 0000000180000000     dJb_LeftThigh_src.obj
 0002:fff9a000       $unwind$Cos                0000000180000000     dJb_LeftThigh_src.obj
 0002:fff9a000       $unwind$Sin                0000000180000000     p_Head_src.obj
 0004:fff8d000       $pdata$Sin                 0000000180000000     p_Head_src.obj
 0002:fff9a000       $unwind$Cos                0000000180000000     p_Head_src.obj
 0004:fff8d000       $pdata$Cos                 0000000180000000     p_Head_src.obj
 0004:fff8d000       $pdata$Sin                 0000000180000000     dJb_LeftThigh_src.obj
 0002:fff9a000       $unwind$Sin                0000000180000000     dJb_LeftThigh_src.obj
 0004:fff8d000       $pdata$Cos                 0000000180000000     dJb_LeftToe_src.obj
 0002:fff9a000       $unwind$Cos                0000000180000000     dJb_LeftToe_src.obj
 0004:fff8d000       $pdata$Sin                 0000000180000000     dJb_LeftToe_src.obj
 0002:fff9a000       $unwind$Sin                0000000180000000     dJb_LeftToe_src.obj
 0004:fff8d000       $pdata$Power               0000000180000000     dJb_LeftToe_src.obj
 0002:fff9a000       $unwind$Power              0000000180000000     dJb_LeftToe_src.obj
 0002:fff9a000       $unwind$Sin                0000000180000000     Js_RightToe_src.obj
 0004:fff8d000       $pdata$Sin                 0000000180000000     Js_RightToe_src.obj
 0002:fff9a000       $unwind$Cos                0000000180000000     Js_RightToe_src.obj
 0004:fff8d000       $pdata$Cos                 0000000180000000     Js_RightToe_src.obj
 0004:fff8d000       $pdata$Cos                 0000000180000000     dJb_RightHip_src.obj
 0002:fff9a000       $unwind$Cos                0000000180000000     dJb_RightHip_src.obj
 0004:fff8d000       $pdata$Sin                 0000000180000000     dJb_RightHip_src.obj
 0002:fff9a000       $unwind$Sin                0000000180000000     dJb_RightHip_src.obj
 0004:fff8d000       $pdata$Cos                 0000000180000000     dJb_RightKnee_src.obj
 0002:fff9a000       $unwind$Cos                0000000180000000     dJb_RightKnee_src.obj
 0004:fff8d000       $pdata$Sin                 0000000180000000     dJb_RightKnee_src.obj
 0002:fff9a000       $unwind$Sin                0000000180000000     dJb_RightKnee_src.obj
 0004:fff8d000       $pdata$Cos                 0000000180000000     dJb_RightShin_src.obj
 0002:fff9a000       $unwind$Cos                0000000180000000     dJb_RightShin_src.obj
 0002:fff9a000       $unwind$Sin                0000000180000000     Js_RightShin_src.obj
 0004:fff8d000       $pdata$Sin                 0000000180000000     Js_RightShin_src.obj
 0002:fff9a000       $unwind$Cos                0000000180000000     Js_RightShin_src.obj
 0004:fff8d000       $pdata$Cos                 0000000180000000     Js_RightShin_src.obj
 0004:fff8d000       $pdata$Sin                 0000000180000000     dJb_RightShin_src.obj
 0002:fff9a000       $unwind$Sin                0000000180000000     dJb_RightShin_src.obj
 0004:fff8d000       $pdata$Power               0000000180000000     dJb_RightShin_src.obj
 0002:fff9a000       $unwind$Power              0000000180000000     dJb_RightShin_src.obj
 0004:fff8d000       $pdata$Cos                 0000000180000000     dJb_RightThigh_src.obj
 0002:fff9a000       $unwind$Sin                0000000180000000     Js_RightKnee_src.obj
 0004:fff8d000       $pdata$Sin                 0000000180000000     Js_RightKnee_src.obj
 0002:fff9a000       $unwind$Cos                0000000180000000     Js_RightKnee_src.obj
 0004:fff8d000       $pdata$Cos                 0000000180000000     Js_RightKnee_src.obj
 0002:fff9a000       $unwind$Cos                0000000180000000     dJb_RightThigh_src.obj
 0004:fff8d000       $pdata$Sin                 0000000180000000     dJb_RightThigh_src.obj
 0002:fff9a000       $unwind$Sin                0000000180000000     dJb_RightThigh_src.obj
 0004:fff8d000       $pdata$Cos                 0000000180000000     dJb_RightToe_src.obj
 0002:fff9a000       $unwind$Cos                0000000180000000     dJb_RightToe_src.obj
 0004:fff8d000       $pdata$Sin                 0000000180000000     dJb_RightToe_src.obj
 0002:fff9a000       $unwind$Sin                0000000180000000     dJb_RightToe_src.obj
 0004:fff8d000       $pdata$Power               0000000180000000     dJb_RightToe_src.obj
 0002:fff9a000       $unwind$Power              0000000180000000     dJb_RightToe_src.obj
 0004:fff8d000       $pdata$Cos                 0000000180000000     dJb_torso_src.obj
 0002:fff9a000       $unwind$Sin                0000000180000000     Js_LeftToe_src.obj
 0004:fff8d000       $pdata$Sin                 0000000180000000     Js_LeftToe_src.obj
 0002:fff9a000       $unwind$Cos                0000000180000000     Js_LeftToe_src.obj
 0004:fff8d000       $pdata$Cos                 0000000180000000     Js_LeftToe_src.obj
 0002:fff9a000       $unwind$Cos                0000000180000000     dJb_torso_src.obj
 0004:fff8d000       $pdata$Sin                 0000000180000000     dJb_torso_src.obj
 0002:fff9a000       $unwind$Sin                0000000180000000     dJb_torso_src.obj
 0000:00000000       .debug$S                   0000000180000000     libmwblas:libmwblas.dll
 0004:fff8d000       $pdata$Cos                 0000000180000000     dJp_Head_src.obj
 0002:fff9a000       $unwind$Cos                0000000180000000     dJp_Head_src.obj
 0004:fff8d000       $pdata$Sin                 0000000180000000     dJp_Head_src.obj
 0002:fff9a000       $unwind$Sin                0000000180000000     dJp_Head_src.obj
 0000:00000000       .debug$S                   0000000180000000     sf_runtime:sf_runtime.dll
 0000:00000000       .debug$S                   0000000180000000     sf_runtime:sf_runtime.dll
 0002:fff9a000       $unwind$Sin                0000000180000000     Js_LeftShin_src.obj
 0004:fff8d000       $pdata$Sin                 0000000180000000     Js_LeftShin_src.obj
 0002:fff9a000       $unwind$Cos                0000000180000000     Js_LeftShin_src.obj
 0004:fff8d000       $pdata$Cos                 0000000180000000     Js_LeftShin_src.obj
 0000:00000000       .debug$S                   0000000180000000     sf_runtime:sf_runtime.dll
 0004:fff8d000       $pdata$Cos                 0000000180000000     dJp_LeftKnee_src.obj
 0002:fff9a000       $unwind$Cos                0000000180000000     dJp_LeftKnee_src.obj
 0004:fff8d000       $pdata$Sin                 0000000180000000     dJp_LeftKnee_src.obj
 0002:fff9a000       $unwind$Sin                0000000180000000     dJp_LeftKnee_src.obj
 0002:fff9a000       $unwind$Sin                0000000180000000     Js_LeftKnee_src.obj
 0004:fff8d000       $pdata$Sin                 0000000180000000     Js_LeftKnee_src.obj
 0002:fff9a000       $unwind$Cos                0000000180000000     Js_LeftKnee_src.obj
 0004:fff8d000       $pdata$Cos                 0000000180000000     Js_LeftKnee_src.obj
 0000:00000000       .debug$S                   0000000180000000     sf_runtime:sf_runtime.dll
 0000:00000000       .debug$S                   0000000180000000     sf_runtime:sf_runtime.dll
 0004:fff8d000       $pdata$Cos                 0000000180000000     dJp_LeftShin_src.obj
 0002:fff9a000       $unwind$Cos                0000000180000000     dJp_LeftShin_src.obj
 0004:fff8d000       $pdata$Sin                 0000000180000000     dJp_LeftShin_src.obj
 0002:fff9a000       $unwind$Sin                0000000180000000     dJp_LeftShin_src.obj
 0000:00000000       .debug$S                   0000000180000000     sf_runtime:sf_runtime.dll
 0000:00000000       .debug$S                   0000000180000000     sf_runtime:sf_runtime.dll
 0004:fff8d000       $pdata$Cos                 0000000180000000     dJp_LeftThigh_src.obj
 0002:fff9a000       $unwind$Cos                0000000180000000     dJp_LeftThigh_src.obj
 0004:fff8d000       $pdata$Sin                 0000000180000000     dJp_LeftThigh_src.obj
 0002:fff9a000       $unwind$Sin                0000000180000000     dJp_LeftThigh_src.obj
 0000:00000000       .debug$S                   0000000180000000     sf_runtime:sf_runtime.dll
 0002:fff9a000       $unwind$Sin                0000000180000000     Jp_torso_src.obj
 0004:fff8d000       $pdata$Sin                 0000000180000000     Jp_torso_src.obj
 0002:fff9a000       $unwind$Cos                0000000180000000     Jp_torso_src.obj
 0004:fff8d000       $pdata$Cos                 0000000180000000     Jp_torso_src.obj
 0000:00000000       .debug$S                   0000000180000000     sf_runtime:sf_runtime.dll
 0004:fff8d000       $pdata$Cos                 0000000180000000     dJp_LeftToe_src.obj
 0002:fff9a000       $unwind$Cos                0000000180000000     dJp_LeftToe_src.obj
 0004:fff8d000       $pdata$Sin                 0000000180000000     dJp_LeftToe_src.obj
 0002:fff9a000       $unwind$Sin                0000000180000000     dJp_LeftToe_src.obj
 0002:fff9a000       $unwind$Sin                0000000180000000     Jp_RightToe_src.obj
 0004:fff8d000       $pdata$Sin                 0000000180000000     Jp_RightToe_src.obj
 0002:fff9a000       $unwind$Cos                0000000180000000     Jp_RightToe_src.obj
 0004:fff8d000       $pdata$Cos                 0000000180000000     Jp_RightToe_src.obj
 0000:00000000       .debug$S                   0000000180000000     sf_runtime:sf_runtime.dll
 0000:00000000       .debug$S                   0000000180000000     sf_runtime:sf_runtime.dll
 0000:00000000       .debug$S                   0000000180000000     sf_runtime:sf_runtime.dll
 0004:fff8d000       $pdata$Cos                 0000000180000000     dJp_RightKnee_src.obj
 0002:fff9a000       $unwind$Cos                0000000180000000     dJp_RightKnee_src.obj
 0002:fff9a000       $unwind$Sin                0000000180000000     Jp_RightThigh_src.obj
 0004:fff8d000       $pdata$Sin                 0000000180000000     Jp_RightThigh_src.obj
 0002:fff9a000       $unwind$Cos                0000000180000000     Jp_RightThigh_src.obj
 0004:fff8d000       $pdata$Cos                 0000000180000000     Jp_RightThigh_src.obj
 0004:fff8d000       $pdata$Sin                 0000000180000000     dJp_RightKnee_src.obj
 0002:fff9a000       $unwind$Sin                0000000180000000     dJp_RightKnee_src.obj
 0000:00000000       .debug$S                   0000000180000000     sf_runtime:sf_runtime.dll
 0000:00000000       .debug$S                   0000000180000000     sf_runtime:sf_runtime.dll
 0004:fff8d000       $pdata$Cos                 0000000180000000     dJp_RightShin_src.obj
 0002:fff9a000       $unwind$Sin                0000000180000000     Jp_RightShin_src.obj
 0004:fff8d000       $pdata$Sin                 0000000180000000     Jp_RightShin_src.obj
 0002:fff9a000       $unwind$Cos                0000000180000000     Jp_RightShin_src.obj
 0004:fff8d000       $pdata$Cos                 0000000180000000     Jp_RightShin_src.obj
 0002:fff9a000       $unwind$Cos                0000000180000000     dJp_RightShin_src.obj
 0004:fff8d000       $pdata$Sin                 0000000180000000     dJp_RightShin_src.obj
 0002:fff9a000       $unwind$Sin                0000000180000000     dJp_RightShin_src.obj
 0000:00000000       .debug$S                   0000000180000000     sf_runtime:sf_runtime.dll
 0000:00000000       .debug$S                   0000000180000000     sf_runtime:sf_runtime.dll
 0002:fff9a000       $unwind$Sin                0000000180000000     Jp_RightKnee_src.obj
 0004:fff8d000       $pdata$Sin                 0000000180000000     Jp_RightKnee_src.obj
 0002:fff9a000       $unwind$Cos                0000000180000000     Jp_RightKnee_src.obj
 0004:fff8d000       $pdata$Cos                 0000000180000000     Jp_RightKnee_src.obj
 0004:fff8d000       $pdata$Cos                 0000000180000000     dJp_RightThigh_src.obj
 0002:fff9a000       $unwind$Cos                0000000180000000     dJp_RightThigh_src.obj
 0004:fff8d000       $pdata$Sin                 0000000180000000     dJp_RightThigh_src.obj
 0002:fff9a000       $unwind$Sin                0000000180000000     dJp_RightThigh_src.obj
 0000:00000000       .debug$S                   0000000180000000     sf_runtime:sf_runtime.dll
 0000:00000000       .debug$S                   0000000180000000     sf_runtime:sf_runtime.dll
 0004:fff8d000       $pdata$Cos                 0000000180000000     dJp_RightToe_src.obj
 0002:fff9a000       $unwind$Cos                0000000180000000     dJp_RightToe_src.obj
 0002:fff9a000       $unwind$Sin                0000000180000000     Jp_LeftToe_src.obj
 0004:fff8d000       $pdata$Sin                 0000000180000000     Jp_LeftToe_src.obj
 0002:fff9a000       $unwind$Cos                0000000180000000     Jp_LeftToe_src.obj
 0004:fff8d000       $pdata$Cos                 0000000180000000     Jp_LeftToe_src.obj
 0004:fff8d000       $pdata$Sin                 0000000180000000     dJp_RightToe_src.obj
 0002:fff9a000       $unwind$Sin                0000000180000000     dJp_RightToe_src.obj
 0000:00000000       .debug$S                   0000000180000000     sf_runtime:sf_runtime.dll
 0000:00000000       .debug$S                   0000000180000000     sf_runtime:sf_runtime.dll
 0004:fff8d000       $pdata$Cos                 0000000180000000     dJp_torso_src.obj
 0002:fff9a000       $unwind$Sin                0000000180000000     Jp_LeftThigh_src.obj
 0004:fff8d000       $pdata$Sin                 0000000180000000     Jp_LeftThigh_src.obj
 0002:fff9a000       $unwind$Cos                0000000180000000     Jp_LeftThigh_src.obj
 0004:fff8d000       $pdata$Cos                 0000000180000000     Jp_LeftThigh_src.obj
 0002:fff9a000       $unwind$Cos                0000000180000000     dJp_torso_src.obj
 0004:fff8d000       $pdata$Sin                 0000000180000000     dJp_torso_src.obj
 0002:fff9a000       $unwind$Sin                0000000180000000     dJp_torso_src.obj
 0000:00000000       .debug$S                   0000000180000000     sf_runtime:sf_runtime.dll
 0000:00000000       .debug$S                   0000000180000000     sf_runtime:sf_runtime.dll
 0002:fff9a000       $unwind$Sin                0000000180000000     Jp_LeftShin_src.obj
 0004:fff8d000       $pdata$Sin                 0000000180000000     Jp_LeftShin_src.obj
 0002:fff9a000       $unwind$Cos                0000000180000000     Jp_LeftShin_src.obj
 0004:fff8d000       $pdata$Cos                 0000000180000000     Jp_LeftShin_src.obj
 0000:00000000       .debug$S                   0000000180000000     sf_runtime:sf_runtime.dll
 0000:00000000       .debug$S                   0000000180000000     sf_runtime:sf_runtime.dll
 0000:00000000       .debug$S                   0000000180000000     sf_runtime:sf_runtime.dll
 0004:fff8d000       $pdata$Cos                 0000000180000000     dJs_LeftKnee_src.obj
 0002:fff9a000       $unwind$Cos                0000000180000000     dJs_LeftKnee_src.obj
 0002:fff9a000       $unwind$Sin                0000000180000000     Jp_LeftKnee_src.obj
 0004:fff8d000       $pdata$Sin                 0000000180000000     Jp_LeftKnee_src.obj
 0002:fff9a000       $unwind$Cos                0000000180000000     Jp_LeftKnee_src.obj
 0004:fff8d000       $pdata$Cos                 0000000180000000     Jp_LeftKnee_src.obj
 0004:fff8d000       $pdata$Sin                 0000000180000000     dJs_LeftKnee_src.obj
 0002:fff9a000       $unwind$Sin                0000000180000000     dJs_LeftKnee_src.obj
 0000:00000000       .debug$S                   0000000180000000     sf_runtime:sf_runtime.dll
 0000:00000000       .debug$S                   0000000180000000     sf_runtime:sf_runtime.dll
 0000:00000000       .debug$S                   0000000180000000     libemlrt:libemlrt.dll
 0004:fff8d000       $pdata$Cos                 0000000180000000     dJs_LeftShin_src.obj
 0002:fff9a000       $unwind$Cos                0000000180000000     dJs_LeftShin_src.obj
 0004:fff8d000       $pdata$Sin                 0000000180000000     dJs_LeftShin_src.obj
 0002:fff9a000       $unwind$Sin                0000000180000000     Jp_Head_src.obj
 0004:fff8d000       $pdata$Sin                 0000000180000000     Jp_Head_src.obj
 0002:fff9a000       $unwind$Cos                0000000180000000     Jp_Head_src.obj
 0004:fff8d000       $pdata$Cos                 0000000180000000     Jp_Head_src.obj
 0002:fff9a000       $unwind$Sin                0000000180000000     dJs_LeftShin_src.obj
 0000:00000000       .debug$S                   0000000180000000     libmwmathutil:libmwmathutil.dll
 0000:00000000       .debug$S                   0000000180000000     sf_runtime:sf_runtime.dll
 0000:00000000       .debug$S                   0000000180000000     sf_runtime:sf_runtime.dll
 0000:00000000       .debug$S                   0000000180000000     libmwmathutil:libmwmathutil.dll
 0002:fff9a000       $unwind$Sin                0000000180000000     Jb_torso_src.obj
 0004:fff8d000       $pdata$Sin                 0000000180000000     Jb_torso_src.obj
 0002:fff9a000       $unwind$Cos                0000000180000000     Jb_torso_src.obj
 0004:fff8d000       $pdata$Cos                 0000000180000000     Jb_torso_src.obj
 0000:00000000       .debug$S                   0000000180000000     sf_runtime:sf_runtime.dll
 0000:00000000       .debug$S                   0000000180000000     libmwmathutil:libmwmathutil.dll
 0000:00000000       .debug$S                   0000000180000000     sf_runtime:sf_runtime.dll
 0004:fff8d000       $pdata$Cos                 0000000180000000     dJs_LeftToe_src.obj
 0000:00000000       .debug$S                   0000000180000000     libmwmathutil:libmwmathutil.dll
 0002:fff9a000       $unwind$Sin                0000000180000000     Jb_RightToe_src.obj
 0004:fff8d000       $pdata$Sin                 0000000180000000     Jb_RightToe_src.obj
 0002:fff9a000       $unwind$Cos                0000000180000000     Jb_RightToe_src.obj
 0004:fff8d000       $pdata$Cos                 0000000180000000     Jb_RightToe_src.obj
 0002:fff9a000       $unwind$Cos                0000000180000000     dJs_LeftToe_src.obj
 0000:00000000       .debug$S                   0000000180000000     libmwmathutil:libmwmathutil.dll
 0004:fff8d000       $pdata$Sin                 0000000180000000     dJs_LeftToe_src.obj
 0002:fff9a000       $unwind$Sin                0000000180000000     dJs_LeftToe_src.obj
 0000:00000000       .debug$S                   0000000180000000     libmwmathutil:libmwmathutil.dll
 0002:fff9a000       $unwind$Power              0000000180000000     Jb_RightThigh_src.obj
 0004:fff8d000       $pdata$Power               0000000180000000     Jb_RightThigh_src.obj
 0002:fff9a000       $unwind$Sin                0000000180000000     Jb_RightThigh_src.obj
 0004:fff8d000       $pdata$Sin                 0000000180000000     Jb_RightThigh_src.obj
 0002:fff9a000       $unwind$Cos                0000000180000000     Jb_RightThigh_src.obj
 0004:fff8d000       $pdata$Cos                 0000000180000000     Jb_RightThigh_src.obj
 0000:00000000       .debug$S                   0000000180000000     sf_runtime:sf_runtime.dll
 0000:00000000       .debug$S                   0000000180000000     sf_runtime:sf_runtime.dll
 0000:00000000       .debug$S                   0000000180000000     sf_runtime:sf_runtime.dll
 0000:00000000       .debug$S                   0000000180000000     sf_runtime:sf_runtime.dll
 0000:00000000       .debug$S                   0000000180000000     libut:libut.dll
 0002:fff9a000       $unwind$Sin                0000000180000000     Jb_RightShin_src.obj
 0004:fff8d000       $pdata$Sin                 0000000180000000     Jb_RightShin_src.obj
 0002:fff9a000       $unwind$Cos                0000000180000000     Jb_RightShin_src.obj
 0004:fff8d000       $pdata$Cos                 0000000180000000     Jb_RightShin_src.obj
 0004:fff8d000       $pdata$Cos                 0000000180000000     dJs_RightKnee_src.obj
 0000:00000000       .debug$S                   0000000180000000     libut:libut.dll
 0002:fff9a000       $unwind$Cos                0000000180000000     dJs_RightKnee_src.obj
 0004:fff8d000       $pdata$Sin                 0000000180000000     dJs_RightKnee_src.obj
 0002:fff9a000       $unwind$Sin                0000000180000000     dJs_RightKnee_src.obj
 0002:fff9a000       $unwind$Sin                0000000180000000     Jb_RightKnee_src.obj
 0004:fff8d000       $pdata$Sin                 0000000180000000     Jb_RightKnee_src.obj
 0002:fff9a000       $unwind$Cos                0000000180000000     Jb_RightKnee_src.obj
 0004:fff8d000       $pdata$Cos                 0000000180000000     Jb_RightKnee_src.obj
 0000:00000000       .debug$S                   0000000180000000     sf_runtime:sf_runtime.dll
 0000:00000000       .debug$S                   0000000180000000     libmex:libmex.dll
 0004:fff8d000       $pdata$Cos                 0000000180000000     dT_RightToe_src.obj
 0004:fff8d000       $pdata$Cos                 0000000180000000     dJs_RightShin_src.obj
 0000:00000000       .debug$S                   0000000180000000     libmex:libmex.dll
 0002:fff9a000       $unwind$Sin                0000000180000000     Jb_RightHip_src.obj
 0004:fff8d000       $pdata$Sin                 0000000180000000     Jb_RightHip_src.obj
 0002:fff9a000       $unwind$Cos                0000000180000000     Jb_RightHip_src.obj
 0004:fff8d000       $pdata$Cos                 0000000180000000     Jb_RightHip_src.obj
 0002:fff9a000       $unwind$Cos                0000000180000000     dJs_RightShin_src.obj
 0000:00000000       .debug$S                   0000000180000000     libmex:libmex.dll
 0004:fff8d000       $pdata$Sin                 0000000180000000     dJs_RightShin_src.obj
 0002:fff9a000       $unwind$Sin                0000000180000000     dJs_RightShin_src.obj
 0000:00000000       .debug$S                   0000000180000000     libmex:libmex.dll
 0002:fff9a000       $unwind$Sin                0000000180000000     Jb_LeftToe_src.obj
 0004:fff8d000       $pdata$Sin                 0000000180000000     Jb_LeftToe_src.obj
 0002:fff9a000       $unwind$Cos                0000000180000000     Jb_LeftToe_src.obj
 0004:fff8d000       $pdata$Cos                 0000000180000000     Jb_LeftToe_src.obj
 0000:00000000       .debug$S                   0000000180000000     sf_runtime:sf_runtime.dll
 0000:00000000       .debug$S                   0000000180000000     libmex:libmex.dll
 0000:00000000       .debug$S                   0000000180000000     sf_runtime:sf_runtime.dll
 0000:00000000       .debug$S                   0000000180000000     sf_runtime:sf_runtime.dll
 0000:00000000       .debug$S                   0000000180000000     libmex:libmex.dll
 0002:fff9a000       $unwind$Power              0000000180000000     Jb_LeftThigh_src.obj
 0004:fff8d000       $pdata$Power               0000000180000000     Jb_LeftThigh_src.obj
 0002:fff9a000       $unwind$Sin                0000000180000000     Jb_LeftThigh_src.obj
 0004:fff8d000       $pdata$Sin                 0000000180000000     Jb_LeftThigh_src.obj
 0002:fff9a000       $unwind$Cos                0000000180000000     Jb_LeftThigh_src.obj
 0004:fff8d000       $pdata$Cos                 0000000180000000     Jb_LeftThigh_src.obj
 0000:00000000       .debug$S                   0000000180000000     sf_runtime:sf_runtime.dll
 0000:00000000       .debug$S                   0000000180000000     libmex:libmex.dll
 0004:fff8d000       $pdata$Cos                 0000000180000000     dJs_RightToe_src.obj
 0002:fff9a000       $unwind$Cos                0000000180000000     dJs_RightToe_src.obj
 0004:fff8d000       $pdata$Sin                 0000000180000000     dJs_RightToe_src.obj
 0002:fff9a000       $unwind$Sin                0000000180000000     Jb_LeftShin_src.obj
 0004:fff8d000       $pdata$Sin                 0000000180000000     Jb_LeftShin_src.obj
 0002:fff9a000       $unwind$Cos                0000000180000000     Jb_LeftShin_src.obj
 0004:fff8d000       $pdata$Cos                 0000000180000000     Jb_LeftShin_src.obj
 0002:fff9a000       $unwind$Sin                0000000180000000     dJs_RightToe_src.obj
 0000:00000000       .debug$S                   0000000180000000     libmx:libmx.dll
 0000:00000000       .debug$S                   0000000180000000     sf_runtime:sf_runtime.dll
 0000:00000000       .debug$S                   0000000180000000     sf_runtime:sf_runtime.dll
 0000:00000000       .debug$S                   0000000180000000     libmx:libmx.dll
 0002:fff9a000       $unwind$Sin                0000000180000000     Jb_LeftKnee_src.obj
 0004:fff8d000       $pdata$Sin                 0000000180000000     Jb_LeftKnee_src.obj
 0002:fff9a000       $unwind$Cos                0000000180000000     Jb_LeftKnee_src.obj
 0004:fff8d000       $pdata$Cos                 0000000180000000     Jb_LeftKnee_src.obj
 0000:00000000       .debug$S                   0000000180000000     sf_runtime:sf_runtime.dll
 0000:00000000       .debug$S                   0000000180000000     libmx:libmx.dll
 0004:fff8d000       $pdata$Cos                 0000000180000000     dR_Head_src.obj
 0002:fff9a000       $unwind$Cos                0000000180000000     dR_Head_src.obj
 0000:00000000       .debug$S                   0000000180000000     libmx:libmx.dll
 0002:fff9a000       $unwind$Sin                0000000180000000     Jb_LeftHip_src.obj
 0004:fff8d000       $pdata$Sin                 0000000180000000     Jb_LeftHip_src.obj
 0002:fff9a000       $unwind$Cos                0000000180000000     Jb_LeftHip_src.obj
 0004:fff8d000       $pdata$Cos                 0000000180000000     Jb_LeftHip_src.obj
 0004:fff8d000       $pdata$Sin                 0000000180000000     dR_Head_src.obj
 0000:00000000       .debug$S                   0000000180000000     libmx:libmx.dll
 0002:fff9a000       $unwind$Sin                0000000180000000     dR_Head_src.obj
 0000:00000000       .debug$S                   0000000180000000     sf_runtime:sf_runtime.dll
 0000:00000000       .debug$S                   0000000180000000     libmx:libmx.dll
 0002:fff9a000       $unwind$Sin                0000000180000000     Jb_Head_src.obj
 0004:fff8d000       $pdata$Sin                 0000000180000000     Jb_Head_src.obj
 0002:fff9a000       $unwind$Cos                0000000180000000     Jb_Head_src.obj
 0004:fff8d000       $pdata$Cos                 0000000180000000     Jb_Head_src.obj
 0000:00000000       .debug$S                   0000000180000000     sf_runtime:sf_runtime.dll
 0000:00000000       .debug$S                   0000000180000000     libmx:libmx.dll
 0004:fff8d000       $pdata$Cos                 0000000180000000     dR_LeftHip_src.obj
 0002:fff9a000       $unwind$Cos                0000000180000000     dR_LeftHip_src.obj
 0000:00000000       .debug$S                   0000000180000000     libmx:libmx.dll
 0004:fff8d000       $pdata$Sin                 0000000180000000     dR_LeftHip_src.obj
 0002:fff9a000       $unwind$Sin                0000000180000000     dR_LeftHip_src.obj
 0000:00000000       .debug$S                   0000000180000000     libmx:libmx.dll
 0000:00000000       .debug$S                   0000000180000000     sf_runtime:sf_runtime.dll
 0000:00000000       .debug$S                   0000000180000000     sf_runtime:sf_runtime.dll
 0000:00000000       .debug$S                   0000000180000000     libmx:libmx.dll
 0004:fff8d000       $pdata$Cos                 0000000180000000     dR_LeftKnee_src.obj
 0002:fff9a000       $unwind$Cos                0000000180000000     dR_LeftKnee_src.obj
 0000:00000000       .debug$S                   0000000180000000     libmx:libmx.dll
 0004:fff8d000       $pdata$Sin                 0000000180000000     dR_LeftKnee_src.obj
 0002:fff9a000       $unwind$Sin                0000000180000000     dR_LeftKnee_src.obj
 0000:00000000       .debug$S                   0000000180000000     libmx:libmx.dll
 0000:00000000       .debug$S                   0000000180000000     sf_runtime:sf_runtime.dll
 0000:00000000       .debug$S                   0000000180000000     sf_runtime:sf_runtime.dll
 0000:00000000       .debug$S                   0000000180000000     libmx:libmx.dll
 0002:fff9a000       $unwind$Sin                0000000180000000     dT_torso_src.obj
 0004:fff8d000       $pdata$Sin                 0000000180000000     dT_torso_src.obj
 0002:fff9a000       $unwind$Cos                0000000180000000     dT_torso_src.obj
 0004:fff8d000       $pdata$Cos                 0000000180000000     dT_torso_src.obj
 0004:fff8d000       $pdata$Cos                 0000000180000000     dR_LeftShin_src.obj
 0000:00000000       .debug$S                   0000000180000000     libmx:libmx.dll
 0002:fff9a000       $unwind$Cos                0000000180000000     dR_LeftShin_src.obj
 0004:fff8d000       $pdata$Sin                 0000000180000000     dR_LeftShin_src.obj
 0000:00000000       .debug$S                   0000000180000000     libmx:libmx.dll
 0002:fff9a000       $unwind$Sin                0000000180000000     dT_RightToe_src.obj
 0004:fff8d000       $pdata$Sin                 0000000180000000     dT_RightToe_src.obj
 0002:fff9a000       $unwind$Cos                0000000180000000     dT_RightToe_src.obj
 0000:00000000       .debug$S                   0000000180000000     sf_runtime:sf_runtime.dll
 0001:00001520       chart_debug_initialization 0000000180002520 f   c1_FLWSim.obj
 0001:000024b0       chart_debug_initialize_data_addresses 00000001800034b0 f   c1_FLWSim.obj
 0001:00002640       initialize_c1_FLWSim       0000000180003640 f   c1_FLWSim.obj
 0001:000026b0       initialize_params_c1_FLWSim 00000001800036b0 f   c1_FLWSim.obj
 0001:000026c0       enable_c1_FLWSim           00000001800036c0 f   c1_FLWSim.obj
 0001:000026f0       disable_c1_FLWSim          00000001800036f0 f   c1_FLWSim.obj
 0001:00002720       c1_update_debugger_state_c1_FLWSim 0000000180003720 f   c1_FLWSim.obj
 0001:00002730       get_sim_state_c1_FLWSim    0000000180003730 f   c1_FLWSim.obj
 0001:00002990       set_sim_state_c1_FLWSim    0000000180003990 f   c1_FLWSim.obj
 0001:00002bb0       finalize_c1_FLWSim         0000000180003bb0 f   c1_FLWSim.obj
 0001:00002bc0       sf_gateway_c1_FLWSim       0000000180003bc0 f   c1_FLWSim.obj
 0001:000056e0       mdl_start_c1_FLWSim        00000001800066e0 f   c1_FLWSim.obj
 0001:00005710       initSimStructsc1_FLWSim    0000000180006710 f   c1_FLWSim.obj
 0001:00005720       init_script_number_translation 0000000180006720 f   c1_FLWSim.obj
 0001:00005810       c1_sf_marshallOut          0000000180006810 f   c1_FLWSim.obj
 0001:00005920       c1_emlrt_marshallIn        0000000180006920 f   c1_FLWSim.obj
 0001:00005990       c1_b_emlrt_marshallIn      0000000180006990 f   c1_FLWSim.obj
 0001:00005a80       c1_sf_marshallIn           0000000180006a80 f   c1_FLWSim.obj
 0001:00005b70       c1_b_sf_marshallOut        0000000180006b70 f   c1_FLWSim.obj
 0001:00005c80       c1_c_emlrt_marshallIn      0000000180006c80 f   c1_FLWSim.obj
 0001:00005cf0       c1_d_emlrt_marshallIn      0000000180006cf0 f   c1_FLWSim.obj
 0001:00005de0       c1_b_sf_marshallIn         0000000180006de0 f   c1_FLWSim.obj
 0001:00005ee0       c1_c_sf_marshallOut        0000000180006ee0 f   c1_FLWSim.obj
 0001:00005ff0       c1_d_sf_marshallOut        0000000180006ff0 f   c1_FLWSim.obj
 0001:000060a0       c1_e_emlrt_marshallIn      00000001800070a0 f   c1_FLWSim.obj
 0001:00006130       c1_c_sf_marshallIn         0000000180007130 f   c1_FLWSim.obj
 0001:000061d0       c1_e_sf_marshallOut        00000001800071d0 f   c1_FLWSim.obj
 0001:000062e0       c1_f_emlrt_marshallIn      00000001800072e0 f   c1_FLWSim.obj
 0001:000063d0       c1_d_sf_marshallIn         00000001800073d0 f   c1_FLWSim.obj
 0001:000064d0       c1_f_sf_marshallOut        00000001800074d0 f   c1_FLWSim.obj
 0001:00006630       c1_g_emlrt_marshallIn      0000000180007630 f   c1_FLWSim.obj
 0001:00006730       c1_e_sf_marshallIn         0000000180007730 f   c1_FLWSim.obj
 0001:00006870       c1_i_emlrt_marshallIn      0000000180007870 f   c1_FLWSim.obj
 0001:000068e0       c1_j_emlrt_marshallIn      00000001800078e0 f   c1_FLWSim.obj
 0001:00006970       init_dsm_address_info      0000000180007970 f   c1_FLWSim.obj
 0001:00006980       init_simulink_io_address   0000000180007980 f   c1_FLWSim.obj
 0001:00007440       sf_get_sim_state_info_c1_FLWSim 0000000180008440 f   c1_FLWSim.obj
 0001:00007510       sf_get_instance_specialization 0000000180008510 f   c1_FLWSim.obj
 0001:00007520       sf_opaque_initialize_c1_FLWSim 0000000180008520 f   c1_FLWSim.obj
 0001:00007560       sf_opaque_enable_c1_FLWSim 0000000180008560 f   c1_FLWSim.obj
 0001:00007580       sf_opaque_disable_c1_FLWSim 0000000180008580 f   c1_FLWSim.obj
 0001:000075a0       sf_opaque_gateway_c1_FLWSim 00000001800085a0 f   c1_FLWSim.obj
 0001:000075c0       sf_opaque_get_sim_state_c1_FLWSim 00000001800085c0 f   c1_FLWSim.obj
 0001:000075f0       sf_opaque_set_sim_state_c1_FLWSim 00000001800085f0 f   c1_FLWSim.obj
 0001:00007620       sf_opaque_terminate_c1_FLWSim 0000000180008620 f   c1_FLWSim.obj
 0001:000076c0       mdlProcessParameters_c1_FLWSim 00000001800086c0 f   c1_FLWSim.obj
 0001:00007780       mdlSetWorkWidths_c1_FLWSim 0000000180008780 f   c1_FLWSim.obj
 0001:00007e10       mdlRTW_c1_FLWSim           0000000180008e10 f   c1_FLWSim.obj
 0001:00007e50       mdlStart_c1_FLWSim         0000000180008e50 f   c1_FLWSim.obj
 0001:00008290       chart_debug_initialization 0000000180009290 f   c2_FLWSim.obj
 0001:000091c0       chart_debug_initialize_data_addresses 000000018000a1c0 f   c2_FLWSim.obj
 0001:00009350       initialize_c2_FLWSim       000000018000a350 f   c2_FLWSim.obj
 0001:000093c0       initialize_params_c2_FLWSim 000000018000a3c0 f   c2_FLWSim.obj
 0001:000093d0       enable_c2_FLWSim           000000018000a3d0 f   c2_FLWSim.obj
 0001:00009400       disable_c2_FLWSim          000000018000a400 f   c2_FLWSim.obj
 0001:00009430       c2_update_debugger_state_c2_FLWSim 000000018000a430 f   c2_FLWSim.obj
 0001:00009440       get_sim_state_c2_FLWSim    000000018000a440 f   c2_FLWSim.obj
 0001:000095b0       set_sim_state_c2_FLWSim    000000018000a5b0 f   c2_FLWSim.obj
 0001:000096f0       finalize_c2_FLWSim         000000018000a6f0 f   c2_FLWSim.obj
 0001:00009700       sf_gateway_c2_FLWSim       000000018000a700 f   c2_FLWSim.obj
 0001:0000c690       mdl_start_c2_FLWSim        000000018000d690 f   c2_FLWSim.obj
 0001:0000c6c0       initSimStructsc2_FLWSim    000000018000d6c0 f   c2_FLWSim.obj
 0001:0000c6d0       init_script_number_translation 000000018000d6d0 f   c2_FLWSim.obj
 0001:0000c7f0       c2_sf_marshallOut          000000018000d7f0 f   c2_FLWSim.obj
 0001:0000c900       c2_emlrt_marshallIn        000000018000d900 f   c2_FLWSim.obj
 0001:0000c970       c2_b_emlrt_marshallIn      000000018000d970 f   c2_FLWSim.obj
 0001:0000ca60       c2_sf_marshallIn           000000018000da60 f   c2_FLWSim.obj
 0001:0000cb60       c2_b_sf_marshallOut        000000018000db60 f   c2_FLWSim.obj
 0001:0000cc70       c2_c_sf_marshallOut        000000018000dc70 f   c2_FLWSim.obj
 0001:0000cd80       c2_d_sf_marshallOut        000000018000dd80 f   c2_FLWSim.obj
 0001:0000ce30       c2_c_emlrt_marshallIn      000000018000de30 f   c2_FLWSim.obj
 0001:0000cec0       c2_b_sf_marshallIn         000000018000dec0 f   c2_FLWSim.obj
 0001:0000cf60       c2_e_sf_marshallOut        000000018000df60 f   c2_FLWSim.obj
 0001:0000d070       c2_d_emlrt_marshallIn      000000018000e070 f   c2_FLWSim.obj
 0001:0000d160       c2_c_sf_marshallIn         000000018000e160 f   c2_FLWSim.obj
 0001:0000d260       c2_f_sf_marshallOut        000000018000e260 f   c2_FLWSim.obj
 0001:0000d3c0       c2_e_emlrt_marshallIn      000000018000e3c0 f   c2_FLWSim.obj
 0001:0000d4c0       c2_d_sf_marshallIn         000000018000e4c0 f   c2_FLWSim.obj
 0001:0000d600       c2_g_sf_marshallOut        000000018000e600 f   c2_FLWSim.obj
 0001:0000d760       c2_f_emlrt_marshallIn      000000018000e760 f   c2_FLWSim.obj
 0001:0000d860       c2_e_sf_marshallIn         000000018000e860 f   c2_FLWSim.obj
 0001:0000d9a0       c2_h_sf_marshallOut        000000018000e9a0 f   c2_FLWSim.obj
 0001:0000db00       c2_i_sf_marshallOut        000000018000eb00 f   c2_FLWSim.obj
 0001:0000dc60       c2_g_emlrt_marshallIn      000000018000ec60 f   c2_FLWSim.obj
 0001:0000dd60       c2_f_sf_marshallIn         000000018000ed60 f   c2_FLWSim.obj
 0001:0000dea0       c2_invNxN                  000000018000eea0 f   c2_FLWSim.obj
 0001:0000e8e0       c2_check_forloop_overflow_error 000000018000f8e0 f   c2_FLWSim.obj
 0001:0000ea40       c2_norm                    000000018000fa40 f   c2_FLWSim.obj
 0001:0000eb40       c2_warning                 000000018000fb40 f   c2_FLWSim.obj
 0001:0000ed10       c2_b_warning               000000018000fd10 f   c2_FLWSim.obj
 0001:0000ef60       c2_h_emlrt_marshallIn      000000018000ff60 f   c2_FLWSim.obj
 0001:0000efd0       c2_i_emlrt_marshallIn      000000018000ffd0 f   c2_FLWSim.obj
 0001:0000f0c0       c2_k_emlrt_marshallIn      00000001800100c0 f   c2_FLWSim.obj
 0001:0000f130       c2_l_emlrt_marshallIn      0000000180010130 f   c2_FLWSim.obj
 0001:0000f1c0       init_dsm_address_info      00000001800101c0 f   c2_FLWSim.obj
 0001:0000f1d0       init_simulink_io_address   00000001800101d0 f   c2_FLWSim.obj
 0001:0000fc90       sf_get_sim_state_info_c2_FLWSim 0000000180010c90 f   c2_FLWSim.obj
 0001:0000fd60       sf_get_instance_specialization 0000000180010d60 f   c2_FLWSim.obj
 0001:0000fd70       sf_opaque_initialize_c2_FLWSim 0000000180010d70 f   c2_FLWSim.obj
 0001:0000fdb0       sf_opaque_enable_c2_FLWSim 0000000180010db0 f   c2_FLWSim.obj
 0001:0000fdd0       sf_opaque_disable_c2_FLWSim 0000000180010dd0 f   c2_FLWSim.obj
 0001:0000fdf0       sf_opaque_gateway_c2_FLWSim 0000000180010df0 f   c2_FLWSim.obj
 0001:0000fe10       sf_opaque_get_sim_state_c2_FLWSim 0000000180010e10 f   c2_FLWSim.obj
 0001:0000fe40       sf_opaque_set_sim_state_c2_FLWSim 0000000180010e40 f   c2_FLWSim.obj
 0001:0000fe70       sf_opaque_terminate_c2_FLWSim 0000000180010e70 f   c2_FLWSim.obj
 0001:0000ff10       mdlProcessParameters_c2_FLWSim 0000000180010f10 f   c2_FLWSim.obj
 0001:0000ffd0       mdlSetWorkWidths_c2_FLWSim 0000000180010fd0 f   c2_FLWSim.obj
 0001:00010710       mdlRTW_c2_FLWSim           0000000180011710 f   c2_FLWSim.obj
 0001:00010750       mdlStart_c2_FLWSim         0000000180011750 f   c2_FLWSim.obj
 0001:00010bb0       chart_debug_initialization 0000000180011bb0 f   c3_FLWSim.obj
 0001:00012120       chart_debug_initialize_data_addresses 0000000180013120 f   c3_FLWSim.obj
 0001:000122b0       initialize_c3_FLWSim       00000001800132b0 f   c3_FLWSim.obj
 0001:00012320       initialize_params_c3_FLWSim 0000000180013320 f   c3_FLWSim.obj
 0001:00012330       enable_c3_FLWSim           0000000180013330 f   c3_FLWSim.obj
 0001:00012360       disable_c3_FLWSim          0000000180013360 f   c3_FLWSim.obj
 0001:00012390       c3_update_debugger_state_c3_FLWSim 0000000180013390 f   c3_FLWSim.obj
 0001:000123a0       get_sim_state_c3_FLWSim    00000001800133a0 f   c3_FLWSim.obj
 0001:00012510       set_sim_state_c3_FLWSim    0000000180013510 f   c3_FLWSim.obj
 0001:00012620       finalize_c3_FLWSim         0000000180013620 f   c3_FLWSim.obj
 0001:00012630       sf_gateway_c3_FLWSim       0000000180013630 f   c3_FLWSim.obj
 0001:00012910       mdl_start_c3_FLWSim        0000000180013910 f   c3_FLWSim.obj
 0001:00012940       c3_chartstep_c3_FLWSim     0000000180013940 f   c3_FLWSim.obj
 0001:00018530       initSimStructsc3_FLWSim    0000000180019530 f   c3_FLWSim.obj
 0001:00018540       c3_p_LeftToe               0000000180019540 f   c3_FLWSim.obj
 0001:00018980       c3_p_RightToe              0000000180019980 f   c3_FLWSim.obj
 0001:00018dc0       c3_Jp_LeftToe              0000000180019dc0 f   c3_FLWSim.obj
 0001:00019200       c3_Jp_RightToe             000000018001a200 f   c3_FLWSim.obj
 0001:00019640       c3_dJp_LeftToe             000000018001a640 f   c3_FLWSim.obj
 0001:00019ac0       c3_dJp_RightToe            000000018001aac0 f   c3_FLWSim.obj
 0001:00019f40       c3_InertiaMatrix           000000018001af40 f   c3_FLWSim.obj
 0001:0001a380       c3_CoriolisTerm            000000018001b380 f   c3_FLWSim.obj
 0001:0001a800       c3_GravityVector           000000018001b800 f   c3_FLWSim.obj
 0001:0001ac40       init_script_number_translation 000000018001bc40 f   c3_FLWSim.obj
 0001:0001ae30       c3_sf_marshallOut          000000018001be30 f   c3_FLWSim.obj
 0001:0001af40       c3_emlrt_marshallIn        000000018001bf40 f   c3_FLWSim.obj
 0001:0001afb0       c3_b_emlrt_marshallIn      000000018001bfb0 f   c3_FLWSim.obj
 0001:0001b0a0       c3_sf_marshallIn           000000018001c0a0 f   c3_FLWSim.obj
 0001:0001b1a0       c3_b_sf_marshallOut        000000018001c1a0 f   c3_FLWSim.obj
 0001:0001b2b0       c3_c_sf_marshallOut        000000018001c2b0 f   c3_FLWSim.obj
 0001:0001b360       c3_d_sf_marshallOut        000000018001c360 f   c3_FLWSim.obj
 0001:0001b470       c3_c_emlrt_marshallIn      000000018001c470 f   c3_FLWSim.obj
 0001:0001b500       c3_b_sf_marshallIn         000000018001c500 f   c3_FLWSim.obj
 0001:0001b5a0       c3_e_sf_marshallOut        000000018001c5a0 f   c3_FLWSim.obj
 0001:0001b700       c3_f_sf_marshallOut        000000018001c700 f   c3_FLWSim.obj
 0001:0001b860       c3_g_sf_marshallOut        000000018001c860 f   c3_FLWSim.obj
 0001:0001b970       c3_d_emlrt_marshallIn      000000018001c970 f   c3_FLWSim.obj
 0001:0001ba60       c3_c_sf_marshallIn         000000018001ca60 f   c3_FLWSim.obj
 0001:0001bb60       c3_h_sf_marshallOut        000000018001cb60 f   c3_FLWSim.obj
 0001:0001bcc0       c3_e_emlrt_marshallIn      000000018001ccc0 f   c3_FLWSim.obj
 0001:0001bdc0       c3_d_sf_marshallIn         000000018001cdc0 f   c3_FLWSim.obj
 0001:0001bf00       c3_i_sf_marshallOut        000000018001cf00 f   c3_FLWSim.obj
 0001:0001c060       c3_f_emlrt_marshallIn      000000018001d060 f   c3_FLWSim.obj
 0001:0001c160       c3_e_sf_marshallIn         000000018001d160 f   c3_FLWSim.obj
 0001:0001c2a0       c3_j_sf_marshallOut        000000018001d2a0 f   c3_FLWSim.obj
 0001:0001c400       c3_g_emlrt_marshallIn      000000018001d400 f   c3_FLWSim.obj
 0001:0001c500       c3_f_sf_marshallIn         000000018001d500 f   c3_FLWSim.obj
 0001:0001c640       c3_k_sf_marshallOut        000000018001d640 f   c3_FLWSim.obj
 0001:0001c750       c3_h_emlrt_marshallIn      000000018001d750 f   c3_FLWSim.obj
 0001:0001c840       c3_g_sf_marshallIn         000000018001d840 f   c3_FLWSim.obj
 0001:0001c940       c3_l_sf_marshallOut        000000018001d940 f   c3_FLWSim.obj
 0001:0001caa0       c3_m_sf_marshallOut        000000018001daa0 f   c3_FLWSim.obj
 0001:0001cc00       c3_i_emlrt_marshallIn      000000018001dc00 f   c3_FLWSim.obj
 0001:0001cd00       c3_h_sf_marshallIn         000000018001dd00 f   c3_FLWSim.obj
 0001:0001ce40       c3_n_sf_marshallOut        000000018001de40 f   c3_FLWSim.obj
 0001:0001cfa0       c3_j_emlrt_marshallIn      000000018001dfa0 f   c3_FLWSim.obj
 0001:0001d0a0       c3_i_sf_marshallIn         000000018001e0a0 f   c3_FLWSim.obj
 0001:0001d1e0       c3_o_sf_marshallOut        000000018001e1e0 f   c3_FLWSim.obj
 0001:0001d2f0       c3_k_emlrt_marshallIn      000000018001e2f0 f   c3_FLWSim.obj
 0001:0001d3e0       c3_j_sf_marshallIn         000000018001e3e0 f   c3_FLWSim.obj
 0001:0001d4d0       c3_rem                     000000018001e4d0 f   c3_FLWSim.obj
 0001:0001d500       c3_mod                     000000018001e500 f   c3_FLWSim.obj
 0001:0001d5d0       c3_error                   000000018001e5d0 f   c3_FLWSim.obj
 0001:0001d6b0       c3_mpower                  000000018001e6b0 f   c3_FLWSim.obj
 0001:0001d9e0       c3_invNxN                  000000018001e9e0 f   c3_FLWSim.obj
 0001:0001e410       c3_check_forloop_overflow_error 000000018001f410 f   c3_FLWSim.obj
 0001:0001e570       c3_norm                    000000018001f570 f   c3_FLWSim.obj
 0001:0001e670       c3_warning                 000000018001f670 f   c3_FLWSim.obj
 0001:0001e840       c3_b_warning               000000018001f840 f   c3_FLWSim.obj
 0001:0001ea90       c3_b_mpower                000000018001fa90 f   c3_FLWSim.obj
 0001:0001edc0       c3_b_invNxN                000000018001fdc0 f   c3_FLWSim.obj
 0001:0001f7f0       c3_b_norm                  00000001800207f0 f   c3_FLWSim.obj
 0001:0001f8e0       c3_l_emlrt_marshallIn      00000001800208e0 f   c3_FLWSim.obj
 0001:0001f950       c3_m_emlrt_marshallIn      0000000180020950 f   c3_FLWSim.obj
 0001:0001fa40       c3_o_emlrt_marshallIn      0000000180020a40 f   c3_FLWSim.obj
 0001:0001fab0       c3_p_emlrt_marshallIn      0000000180020ab0 f   c3_FLWSim.obj
 0001:0001fb40       init_dsm_address_info      0000000180020b40 f   c3_FLWSim.obj
 0001:0001fb50       init_simulink_io_address   0000000180020b50 f   c3_FLWSim.obj
 0001:00020610       sf_get_sim_state_info_c3_FLWSim 0000000180021610 f   c3_FLWSim.obj
 0001:000206e0       sf_get_instance_specialization 00000001800216e0 f   c3_FLWSim.obj
 0001:000206f0       sf_opaque_initialize_c3_FLWSim 00000001800216f0 f   c3_FLWSim.obj
 0001:00020730       sf_opaque_enable_c3_FLWSim 0000000180021730 f   c3_FLWSim.obj
 0001:00020750       sf_opaque_disable_c3_FLWSim 0000000180021750 f   c3_FLWSim.obj
 0001:00020770       sf_opaque_gateway_c3_FLWSim 0000000180021770 f   c3_FLWSim.obj
 0001:00020790       sf_opaque_get_sim_state_c3_FLWSim 0000000180021790 f   c3_FLWSim.obj
 0001:000207c0       sf_opaque_set_sim_state_c3_FLWSim 00000001800217c0 f   c3_FLWSim.obj
 0001:000207f0       sf_opaque_terminate_c3_FLWSim 00000001800217f0 f   c3_FLWSim.obj
 0001:00020890       mdlProcessParameters_c3_FLWSim 0000000180021890 f   c3_FLWSim.obj
 0001:00020950       mdlSetWorkWidths_c3_FLWSim 0000000180021950 f   c3_FLWSim.obj
 0001:00021090       mdlRTW_c3_FLWSim           0000000180022090 f   c3_FLWSim.obj
 0001:000210d0       mdlStart_c3_FLWSim         00000001800220d0 f   c3_FLWSim.obj
 0001:0002380c       $LN180                     000000018002480c     FLWSim_sfun_registry.obj
 0001:000259d4       $LN17                      00000001800269d4     FLWSim_sfun_registry.obj
 0001:00025f5c       $LN26                      0000000180026f5c     FLWSim_sfun_registry.obj
 0001:00026644       $LN23                      0000000180027644     FLWSim_sfun_registry.obj
 0001:00026c14       $LN26                      0000000180027c14     FLWSim_sfun_registry.obj
 0001:000288c0       sf_debug_api_wrapper       00000001800298c0 f   FLWSim_sfun_registry.obj
 0001:00028910       ProcessMexSfunctionCmdLineCall 0000000180029910 f   FLWSim_sfun_registry.obj
 0001:00028c80       mdlSetWorkWidths           0000000180029c80 f   FLWSim_sfun_registry.obj
 0001:00028cd0       mdlProcessParameters       0000000180029cd0 f   FLWSim_sfun_registry.obj
 0001:00028d00       mdl_start_processing       0000000180029d00 f   FLWSim_sfun_registry.obj
 0001:00028d60       mdl_terminate_processing   0000000180029d60 f   FLWSim_sfun_registry.obj
 0001:00028e20       mdlStart                   0000000180029e20 f   FLWSim_sfun_registry.obj
 0001:00028e50       mdlTerminate               0000000180029e50 f   FLWSim_sfun_registry.obj
 0001:00028e80       mdlInitializeSizes         0000000180029e80 f   FLWSim_sfun_registry.obj
 0001:00028eb0       mdlInitializeSampleTimes   0000000180029eb0 f   FLWSim_sfun_registry.obj
 0001:00028ee0       mdl_outputs_continuous_legacy 0000000180029ee0 f   FLWSim_sfun_registry.obj
 0001:00028fe0       mdl_outputs_processing     0000000180029fe0 f   FLWSim_sfun_registry.obj
 0001:00029100       mdl_zeroCrossings_processing 000000018002a100 f   FLWSim_sfun_registry.obj
 0001:00029140       mdlZeroCrossings           000000018002a140 f   FLWSim_sfun_registry.obj
 0001:00029170       mdl_derivatives_processing 000000018002a170 f   FLWSim_sfun_registry.obj
 0001:000291c0       mdlDerivatives             000000018002a1c0 f   FLWSim_sfun_registry.obj
 0001:000291f0       mdl_initialize_conditions_processing 000000018002a1f0 f   FLWSim_sfun_registry.obj
 0001:00029240       mdlInitializeConditions    000000018002a240 f   FLWSim_sfun_registry.obj
 0001:00029270       mdl_ext_mode_exec_processing 000000018002a270 f   FLWSim_sfun_registry.obj
 0001:000292b0       mdlExtModeExec             000000018002a2b0 f   FLWSim_sfun_registry.obj
 0001:000292e0       mdlRTW                     000000018002a2e0 f   FLWSim_sfun_registry.obj
 0001:00029320       mdl_enable_processing      000000018002a320 f   FLWSim_sfun_registry.obj
 0001:00029360       mdlEnable                  000000018002a360 f   FLWSim_sfun_registry.obj
 0001:00029390       mdl_disable_processing     000000018002a390 f   FLWSim_sfun_registry.obj
 0001:000293d0       mdlDisable                 000000018002a3d0 f   FLWSim_sfun_registry.obj
 0001:00029400       mdlOutputs                 000000018002a400 f   FLWSim_sfun_registry.obj
 0001:00029430       mdl_update_processing      000000018002a430 f   FLWSim_sfun_registry.obj
 0001:00029480       mdlUpdate                  000000018002a480 f   FLWSim_sfun_registry.obj
 0001:00029660       mdlGetTimeOfNextVarHit     000000018002a660 f   FLWSim_sfun_registry.obj
 0001:000296b0       _RegNumInputPortsCB        000000018002a6b0 f   FLWSim_sfun_registry.obj
 0001:00029730       _RegNumOutputPortsCB       000000018002a730 f   FLWSim_sfun_registry.obj
 0001:000297b0       _CreateSimStruct           000000018002a7b0 f   FLWSim_sfun_registry.obj
 0001:000299b0       _ProcessMexSfunctionCmdLineCall 000000018002a9b0 f   FLWSim_sfun_registry.obj
 0001:0002a3f0       ReportIndexOutOfBoundsError 000000018002b3f0 f   FLWSim_sfun_registry.obj
 0001:0002a6b0       output1                    000000018002b6b0 f   CoriolisTerm_src.obj
 0001:000332a0       output1                    00000001800342a0 f   GravityVector_src.obj
 0001:00033a50       output1                    0000000180034a50 f   InertiaMatrix_src.obj
 0001:00035bd0       output1                    0000000180036bd0 f   AMBody_LeftShin_src.obj
 0001:00035cc0       output1                    0000000180036cc0 f   AMBody_LeftThigh_src.obj
 0001:00035d90       output1                    0000000180036d90 f   AMBody_RightShin_src.obj
 0001:00035e80       output1                    0000000180036e80 f   AMBody_RightThigh_src.obj
 0001:00035f50       output1                    0000000180036f50 f   AMBody_torso_src.obj
 0001:00036010       output1                    0000000180037010 f   AMWorld_LeftShin_src.obj
 0001:00036100       output1                    0000000180037100 f   AMWorld_LeftThigh_src.obj
 0001:000361d0       output1                    00000001800371d0 f   AMWorld_RightShin_src.obj
 0001:000362c0       output1                    00000001800372c0 f   AMWorld_RightThigh_src.obj
 0001:00036390       output1                    0000000180037390 f   AMWorld_torso_src.obj
 0001:00036450       output1                    0000000180037450 f   dJb_Head_src.obj
 0001:000368f0       output1                    00000001800378f0 f   dJb_LeftHip_src.obj
 0001:00036fa0       output1                    0000000180037fa0 f   dJb_LeftKnee_src.obj
 0001:00037c10       output1                    0000000180038c10 f   dJb_LeftShin_src.obj
 0001:00038ad0       output1                    0000000180039ad0 f   dJb_LeftThigh_src.obj
 0001:00039180       output1                    000000018003a180 f   dJb_LeftToe_src.obj
 0001:0003a050       output1                    000000018003b050 f   dJb_RightHip_src.obj
 0001:0003a700       output1                    000000018003b700 f   dJb_RightKnee_src.obj
 0001:0003b370       output1                    000000018003c370 f   dJb_RightShin_src.obj
 0001:0003c230       output1                    000000018003d230 f   dJb_RightThigh_src.obj
 0001:0003c8e0       output1                    000000018003d8e0 f   dJb_RightToe_src.obj
 0001:0003d7b0       output1                    000000018003e7b0 f   dJb_torso_src.obj
 0001:0003dc50       output1                    000000018003ec50 f   dJp_Head_src.obj
 0001:0003def0       output1                    000000018003eef0 f   dJp_LeftHip_src.obj
 0001:0003e110       output1                    000000018003f110 f   dJp_LeftKnee_src.obj
 0001:0003eb50       output1                    000000018003fb50 f   dJp_LeftShin_src.obj
 0001:0003f590       output1                    0000000180040590 f   dJp_LeftThigh_src.obj
 0001:0003fa00       output1                    0000000180040a00 f   dJp_LeftToe_src.obj
 0001:00040440       output1                    0000000180041440 f   dJp_RightHip_src.obj
 0001:00040660       output1                    0000000180041660 f   dJp_RightKnee_src.obj
 0001:000410a0       output1                    00000001800420a0 f   dJp_RightShin_src.obj
 0001:00041ae0       output1                    0000000180042ae0 f   dJp_RightThigh_src.obj
 0001:00041f50       output1                    0000000180042f50 f   dJp_RightToe_src.obj
 0001:00042990       output1                    0000000180043990 f   dJp_torso_src.obj
 0001:00042c30       output1                    0000000180043c30 f   dJs_Head_src.obj
 0001:00043050       output1                    0000000180044050 f   dJs_LeftHip_src.obj
 0001:00043490       output1                    0000000180044490 f   dJs_LeftKnee_src.obj
 0001:00043b20       output1                    0000000180044b20 f   dJs_LeftShin_src.obj
 0001:000441b0       output1                    00000001800451b0 f   dJs_LeftThigh_src.obj
 0001:000445f0       output1                    00000001800455f0 f   dJs_LeftToe_src.obj
 0001:00044c80       output1                    0000000180045c80 f   dJs_RightHip_src.obj
 0001:000450c0       output1                    00000001800460c0 f   dJs_RightKnee_src.obj
 0001:00045750       output1                    0000000180046750 f   dJs_RightShin_src.obj
 0001:00045de0       output1                    0000000180046de0 f   dJs_RightThigh_src.obj
 0001:00046220       output1                    0000000180047220 f   dJs_RightToe_src.obj
 0001:000468b0       output1                    00000001800478b0 f   dJs_torso_src.obj
 0001:00046cd0       output1                    0000000180047cd0 f   dR_Head_src.obj
 0001:00046e90       output1                    0000000180047e90 f   dR_LeftHip_src.obj
 0001:00047200       output1                    0000000180048200 f   dR_LeftKnee_src.obj
 0001:00047800       output1                    0000000180048800 f   dR_LeftShin_src.obj
 0001:00047e00       output1                    0000000180048e00 f   dR_LeftThigh_src.obj
 0001:00048170       output1                    0000000180049170 f   dR_LeftToe_src.obj
 0001:00048770       output1                    0000000180049770 f   dR_RightHip_src.obj
 0001:00048ae0       output1                    0000000180049ae0 f   dR_RightKnee_src.obj
 0001:000490e0       output1                    000000018004a0e0 f   dR_RightShin_src.obj
 0001:000496e0       output1                    000000018004a6e0 f   dR_RightThigh_src.obj
 0001:00049a50       output1                    000000018004aa50 f   dR_RightToe_src.obj
 0001:0004a050       output1                    000000018004b050 f   dR_torso_src.obj
 0001:0004a210       output1                    000000018004b210 f   dT_Head_src.obj
 0001:0004a4e0       output1                    000000018004b4e0 f   dT_LeftHip_src.obj
 0001:0004a930       output1                    000000018004b930 f   dT_LeftKnee_src.obj
 0001:0004b2d0       output1                    000000018004c2d0 f   dT_LeftShin_src.obj
 0001:0004bc70       output1                    000000018004cc70 f   dT_LeftThigh_src.obj
 0001:0004c160       output1                    000000018004d160 f   dT_LeftToe_src.obj
 0001:0004cb00       output1                    000000018004db00 f   dT_RightHip_src.obj
 0001:0004cf50       output1                    000000018004df50 f   dT_RightKnee_src.obj
 0001:0004d8f0       output1                    000000018004e8f0 f   dT_RightShin_src.obj
 0001:0004e290       output1                    000000018004f290 f   dT_RightThigh_src.obj
 0001:0004e780       output1                    000000018004f780 f   dT_RightToe_src.obj
 0001:0004f120       output1                    0000000180050120 f   dT_torso_src.obj
 0001:0004f3e0       output1                    00000001800503e0 f   Inertia_LeftShin_src.obj
 0001:0004f4f0       output1                    00000001800504f0 f   Inertia_LeftThigh_src.obj
 0001:0004f600       output1                    0000000180050600 f   Inertia_RightShin_src.obj
 0001:0004f710       output1                    0000000180050710 f   Inertia_RightThigh_src.obj
 0001:0004f820       output1                    0000000180050820 f   Inertia_torso_src.obj
 0001:0004f930       output1                    0000000180050930 f   Jb_Head_src.obj
 0001:0004fd90       output1                    0000000180050d90 f   Jb_LeftHip_src.obj
 0001:00050280       output1                    0000000180051280 f   Jb_LeftKnee_src.obj
 0001:00050a90       output1                    0000000180051a90 f   Jb_LeftShin_src.obj
 0001:00051340       output1                    0000000180052340 f   Jb_LeftThigh_src.obj
 0001:000518b0       output1                    00000001800528b0 f   Jb_LeftToe_src.obj
 0001:00052160       output1                    0000000180053160 f   Jb_RightHip_src.obj
 0001:00052650       output1                    0000000180053650 f   Jb_RightKnee_src.obj
 0001:00052e60       output1                    0000000180053e60 f   Jb_RightShin_src.obj
 0001:00053710       output1                    0000000180054710 f   Jb_RightThigh_src.obj
 0001:00053c80       output1                    0000000180054c80 f   Jb_RightToe_src.obj
 0001:00054530       output1                    0000000180055530 f   Jb_torso_src.obj
 0001:00054990       output1                    0000000180055990 f   Jp_Head_src.obj
 0001:00054c00       output1                    0000000180055c00 f   Jp_LeftHip_src.obj
 0001:00054e20       output1                    0000000180055e20 f   Jp_LeftKnee_src.obj
 0001:00055520       output1                    0000000180056520 f   Jp_LeftShin_src.obj
 0001:00055c20       output1                    0000000180056c20 f   Jp_LeftThigh_src.obj
 0001:00055fc0       output1                    0000000180056fc0 f   Jp_LeftToe_src.obj
 0001:000566c0       output1                    00000001800576c0 f   Jp_RightHip_src.obj
 0001:000568e0       output1                    00000001800578e0 f   Jp_RightKnee_src.obj
 0001:00056fe0       output1                    0000000180057fe0 f   Jp_RightShin_src.obj
 0001:000576e0       output1                    00000001800586e0 f   Jp_RightThigh_src.obj
 0001:00057a80       output1                    0000000180058a80 f   Jp_RightToe_src.obj
 0001:00058180       output1                    0000000180059180 f   Jp_torso_src.obj
 0001:000583f0       output1                    00000001800593f0 f   Js_Head_src.obj
 0001:00058800       output1                    0000000180059800 f   Js_LeftHip_src.obj
 0001:00058c40       output1                    0000000180059c40 f   Js_LeftKnee_src.obj
 0001:00059190       output1                    000000018005a190 f   Js_LeftShin_src.obj
 0001:000596e0       output1                    000000018005a6e0 f   Js_LeftThigh_src.obj
 0001:00059b20       output1                    000000018005ab20 f   Js_LeftToe_src.obj
 0001:0005a070       output1                    000000018005b070 f   Js_RightHip_src.obj
 0001:0005a4b0       output1                    000000018005b4b0 f   Js_RightKnee_src.obj
 0001:0005aa00       output1                    000000018005ba00 f   Js_RightShin_src.obj
 0001:0005af50       output1                    000000018005bf50 f   Js_RightThigh_src.obj
 0001:0005b390       output1                    000000018005c390 f   Js_RightToe_src.obj
 0001:0005b8e0       output1                    000000018005c8e0 f   Js_torso_src.obj
 0001:0005bcf0       output1                    000000018005ccf0 f   p_Head_src.obj
 0001:0005be00       output1                    000000018005ce00 f   p_LeftHip_src.obj
 0001:0005bea0       output1                    000000018005cea0 f   p_LeftKnee_src.obj
 0001:0005c230       output1                    000000018005d230 f   p_LeftShin_src.obj
 0001:0005c5c0       output1                    000000018005d5c0 f   p_LeftThigh_src.obj
 0001:0005c740       output1                    000000018005d740 f   p_LeftToe_src.obj
 0001:0005cad0       output1                    000000018005dad0 f   p_RightHip_src.obj
 0001:0005cb70       output1                    000000018005db70 f   p_RightKnee_src.obj
 0001:0005cf00       output1                    000000018005df00 f   p_RightShin_src.obj
 0001:0005d290       output1                    000000018005e290 f   p_RightThigh_src.obj
 0001:0005d410       output1                    000000018005e410 f   p_RightToe_src.obj
 0001:0005d7a0       output1                    000000018005e7a0 f   p_torso_src.obj
 0001:0005d8b0       output1                    000000018005e8b0 f   R_Head_src.obj
 0001:0005da10       output1                    000000018005ea10 f   R_LeftHip_src.obj
 0001:0005dc20       output1                    000000018005ec20 f   R_LeftKnee_src.obj
 0001:0005df70       output1                    000000018005ef70 f   R_LeftShin_src.obj
 0001:0005e2c0       output1                    000000018005f2c0 f   R_LeftThigh_src.obj
 0001:0005e4d0       output1                    000000018005f4d0 f   R_LeftToe_src.obj
 0001:0005e820       output1                    000000018005f820 f   R_RightHip_src.obj
 0001:0005ea30       output1                    000000018005fa30 f   R_RightKnee_src.obj
 0001:0005ed80       output1                    000000018005fd80 f   R_RightShin_src.obj
 0001:0005f0d0       output1                    00000001800600d0 f   R_RightThigh_src.obj
 0001:0005f2e0       output1                    00000001800602e0 f   R_RightToe_src.obj
 0001:0005f630       output1                    0000000180060630 f   R_torso_src.obj
 0001:0005f790       output1                    0000000180060790 f   T_Head_src.obj
 0001:0005f9d0       output1                    00000001800609d0 f   T_LeftHip_src.obj
 0001:0005fca0       output1                    0000000180060ca0 f   T_LeftKnee_src.obj
 0001:00060220       output1                    0000000180061220 f   T_LeftShin_src.obj
 0001:000607a0       output1                    00000001800617a0 f   T_LeftThigh_src.obj
 0001:00060af0       output1                    0000000180061af0 f   T_LeftToe_src.obj
 0001:00061070       output1                    0000000180062070 f   T_RightHip_src.obj
 0001:00061340       output1                    0000000180062340 f   T_RightKnee_src.obj
 0001:000618c0       output1                    00000001800628c0 f   T_RightShin_src.obj
 0001:00061e40       output1                    0000000180062e40 f   T_RightThigh_src.obj
 0001:00062190       output1                    0000000180063190 f   T_RightToe_src.obj
 0001:00062710       output1                    0000000180063710 f   T_torso_src.obj
 0001:00062eac       capture_current_context    0000000180063eac f   MSVCRT:gs_report.obj
 0001:00062f1c       capture_previous_context   0000000180063f1c f   MSVCRT:gs_report.obj
 0001:00063010       $$000000                   0000000180064010     MSVCRT:_amdsecgs_.obj
 0001:00063050       $$000000                   0000000180064050     MSVCRT:_chkstk_.obj
 0001:000630b4       ?dllmain_crt_dispatch@@YAHQEAUHINSTANCE__@@KQEAX@Z 00000001800640b4 f   MSVCRT:dll_dllmain.obj
 0001:00063104       ?dllmain_crt_process_attach@@YAHQEAUHINSTANCE__@@QEAX@Z 0000000180064104 f   MSVCRT:dll_dllmain.obj
 0001:00063230       ?dllmain_crt_process_detach@@YAH_N@Z 0000000180064230 f   MSVCRT:dll_dllmain.obj
 0001:000632b4       ?dllmain_dispatch@@YAHQEAUHINSTANCE__@@KQEAX@Z 00000001800642b4 f   MSVCRT:dll_dllmain.obj
 0001:000633ac       ?dllmain_raw@@YAHQEAUHINSTANCE__@@KQEAX@Z 00000001800643ac f   MSVCRT:dll_dllmain.obj
 0001:000634a0       ?find_pe_section@@YAPEAU_IMAGE_SECTION_HEADER@@QEAE_K@Z 00000001800644a0 f   MSVCRT:utility.obj
 0001:000634ec       ?is_potentially_valid_image_base@@YA_NQEAX@Z 00000001800644ec f   MSVCRT:utility.obj
 0001:00064030       $$000000                   0000000180065030     MSVCRT:_guard_dispatch_.obj
 0001:00064042       ?fin$0@?0??dllmain_crt_process_attach@@YAHQEAUHINSTANCE__@@QEAX@Z@4HA 0000000180065042 f   MSVCRT:dll_dllmain.obj
 0001:00064059       ?fin$0@?0??dllmain_crt_process_detach@@YAH_N@Z@4HA 0000000180065059 f   MSVCRT:dll_dllmain.obj
 0001:00064075       ?filt$0@?0??dllmain_dispatch@@YAHQEAUHINSTANCE__@@KQEAX@Z@4HA 0000000180065075 f   MSVCRT:dll_dllmain.obj
 0001:000640ab       __scrt_is_nonwritable_in_current_image$filt$0 00000001800650ab f   MSVCRT:utility.obj
 0002:00000888       GS_ExceptionPointers       0000000180066888     MSVCRT:gs_report.obj
 0002:00000ba0       $unwind$load_FLWSim_optimization_info 0000000180066ba0     FLWSim_sfun.obj
 0002:00000ba8       $unwind$unload_FLWSim_optimization_info 0000000180066ba8     FLWSim_sfun.obj
 0002:00000bb0       $unwind$sf_FLWSim_method_dispatcher 0000000180066bb0     FLWSim_sfun.obj
 0002:00000bb8       $unwind$sf_FLWSim_process_check_sum_call 0000000180066bb8     FLWSim_sfun.obj
 0002:00000bc8       $unwind$sf_FLWSim_autoinheritance_info 0000000180066bc8     FLWSim_sfun.obj
 0002:00000bd8       $unwind$sf_FLWSim_get_eml_resolved_functions_info 0000000180066bd8     FLWSim_sfun.obj
 0002:00000be8       $unwind$sf_FLWSim_third_party_uses_info 0000000180066be8     FLWSim_sfun.obj
 0002:00000bf8       $unwind$sf_FLWSim_jit_fallback_info 0000000180066bf8     FLWSim_sfun.obj
 0002:00000c08       $unwind$sf_FLWSim_updateBuildInfo_args_info 0000000180066c08     FLWSim_sfun.obj
 0002:00000c18       $unwind$FLWSim_debug_initialize 0000000180066c18     FLWSim_sfun.obj
 0002:00000c20       $unwind$sf_c1_FLWSim_get_eml_resolved_functions_info 0000000180066c20     c1_FLWSim.obj
 0002:00000c30       $unwind$sf_c1_FLWSim_get_check_sum 0000000180066c30     c1_FLWSim.obj
 0002:00000c38       $unwind$c1_FLWSim_method_dispatcher 0000000180066c38     c1_FLWSim.obj
 0002:00000c40       $unwind$chart_debug_initialization 0000000180066c40     c1_FLWSim.obj
 0002:00000c48       $unwind$chart_debug_initialize_data_addresses 0000000180066c48     c1_FLWSim.obj
 0002:00000c50       $unwind$initialize_c1_FLWSim 0000000180066c50     c1_FLWSim.obj
 0002:00000c58       $unwind$enable_c1_FLWSim   0000000180066c58     c1_FLWSim.obj
 0002:00000c60       $unwind$disable_c1_FLWSim  0000000180066c60     c1_FLWSim.obj
 0002:00000c68       $unwind$get_sim_state_c1_FLWSim 0000000180066c68     c1_FLWSim.obj
 0002:00000c70       $unwind$set_sim_state_c1_FLWSim 0000000180066c70     c1_FLWSim.obj
 0002:00000c80       $unwind$sf_gateway_c1_FLWSim 0000000180066c80     c1_FLWSim.obj
 0002:00000c90       $unwind$mdl_start_c1_FLWSim 0000000180066c90     c1_FLWSim.obj
 0002:00000c98       $unwind$init_script_number_translation 0000000180066c98     c1_FLWSim.obj
 0002:00000ca0       $unwind$c1_sf_marshallOut  0000000180066ca0     c1_FLWSim.obj
 0002:00000cb0       $unwind$c1_emlrt_marshallIn 0000000180066cb0     c1_FLWSim.obj
 0002:00000cb8       $unwind$c1_b_emlrt_marshallIn 0000000180066cb8     c1_FLWSim.obj
 0002:00000cc8       $unwind$c1_sf_marshallIn   0000000180066cc8     c1_FLWSim.obj
 0002:00000cd8       $unwind$c1_b_sf_marshallOut 0000000180066cd8     c1_FLWSim.obj
 0002:00000ce8       $unwind$c1_c_emlrt_marshallIn 0000000180066ce8     c1_FLWSim.obj
 0002:00000cf0       $unwind$c1_d_emlrt_marshallIn 0000000180066cf0     c1_FLWSim.obj
 0002:00000d00       $unwind$c1_b_sf_marshallIn 0000000180066d00     c1_FLWSim.obj
 0002:00000d10       $unwind$c1_c_sf_marshallOut 0000000180066d10     c1_FLWSim.obj
 0002:00000d20       $unwind$c1_d_sf_marshallOut 0000000180066d20     c1_FLWSim.obj
 0002:00000d28       $unwind$c1_e_emlrt_marshallIn 0000000180066d28     c1_FLWSim.obj
 0002:00000d30       $unwind$c1_c_sf_marshallIn 0000000180066d30     c1_FLWSim.obj
 0002:00000d38       $unwind$c1_e_sf_marshallOut 0000000180066d38     c1_FLWSim.obj
 0002:00000d48       $unwind$c1_f_emlrt_marshallIn 0000000180066d48     c1_FLWSim.obj
 0002:00000d58       $unwind$c1_d_sf_marshallIn 0000000180066d58     c1_FLWSim.obj
 0002:00000d68       $unwind$c1_f_sf_marshallOut 0000000180066d68     c1_FLWSim.obj
 0002:00000d78       $unwind$c1_g_emlrt_marshallIn 0000000180066d78     c1_FLWSim.obj
 0002:00000d88       $unwind$c1_e_sf_marshallIn 0000000180066d88     c1_FLWSim.obj
 0002:00000d98       $unwind$c1_i_emlrt_marshallIn 0000000180066d98     c1_FLWSim.obj
 0002:00000da0       $unwind$c1_j_emlrt_marshallIn 0000000180066da0     c1_FLWSim.obj
 0002:00000da8       $unwind$init_simulink_io_address 0000000180066da8     c1_FLWSim.obj
 0002:00000db0       $unwind$sf_c1_FLWSim_get_post_codegen_info 0000000180066db0     c1_FLWSim.obj
 0002:00000db8       $unwind$sf_c1_FLWSim_get_autoinheritance_info 0000000180066db8     c1_FLWSim.obj
 0002:00000dc8       $unwind$sf_c1_FLWSim_third_party_uses_info 0000000180066dc8     c1_FLWSim.obj
 0002:00000dd0       $unwind$sf_c1_FLWSim_jit_fallback_info 0000000180066dd0     c1_FLWSim.obj
 0002:00000de0       $unwind$sf_c1_FLWSim_updateBuildInfo_args_info 0000000180066de0     c1_FLWSim.obj
 0002:00000de8       $unwind$sf_get_sim_state_info_c1_FLWSim 0000000180066de8     c1_FLWSim.obj
 0002:00000df0       $unwind$sf_opaque_initialize_c1_FLWSim 0000000180066df0     c1_FLWSim.obj
 0002:00000df8       $unwind$sf_opaque_enable_c1_FLWSim 0000000180066df8     c1_FLWSim.obj
 0002:00000e00       $unwind$sf_opaque_disable_c1_FLWSim 0000000180066e00     c1_FLWSim.obj
 0002:00000e08       $unwind$sf_opaque_gateway_c1_FLWSim 0000000180066e08     c1_FLWSim.obj
 0002:00000e10       $unwind$sf_opaque_get_sim_state_c1_FLWSim 0000000180066e10     c1_FLWSim.obj
 0002:00000e18       $unwind$sf_opaque_set_sim_state_c1_FLWSim 0000000180066e18     c1_FLWSim.obj
 0002:00000e20       $unwind$sf_opaque_terminate_c1_FLWSim 0000000180066e20     c1_FLWSim.obj
 0002:00000e28       $unwind$mdlProcessParameters_c1_FLWSim 0000000180066e28     c1_FLWSim.obj
 0002:00000e30       $unwind$mdlSetWorkWidths_c1_FLWSim 0000000180066e30     c1_FLWSim.obj
 0002:00000e38       $unwind$mdlRTW_c1_FLWSim   0000000180066e38     c1_FLWSim.obj
 0002:00000e40       $unwind$mdlStart_c1_FLWSim 0000000180066e40     c1_FLWSim.obj
 0002:00000e48       $unwind$sf_c2_FLWSim_get_eml_resolved_functions_info 0000000180066e48     c2_FLWSim.obj
 0002:00000e58       $unwind$sf_c2_FLWSim_get_check_sum 0000000180066e58     c2_FLWSim.obj
 0002:00000e60       $unwind$c2_FLWSim_method_dispatcher 0000000180066e60     c2_FLWSim.obj
 0002:00000e68       $unwind$chart_debug_initialization 0000000180066e68     c2_FLWSim.obj
 0002:00000e70       $unwind$chart_debug_initialize_data_addresses 0000000180066e70     c2_FLWSim.obj
 0002:00000e78       $unwind$initialize_c2_FLWSim 0000000180066e78     c2_FLWSim.obj
 0002:00000e80       $unwind$enable_c2_FLWSim   0000000180066e80     c2_FLWSim.obj
 0002:00000e88       $unwind$disable_c2_FLWSim  0000000180066e88     c2_FLWSim.obj
 0002:00000e90       $unwind$get_sim_state_c2_FLWSim 0000000180066e90     c2_FLWSim.obj
 0002:00000e98       $unwind$set_sim_state_c2_FLWSim 0000000180066e98     c2_FLWSim.obj
 0002:00000ea8       $unwind$sf_gateway_c2_FLWSim 0000000180066ea8     c2_FLWSim.obj
 0002:00000eb8       $unwind$mdl_start_c2_FLWSim 0000000180066eb8     c2_FLWSim.obj
 0002:00000ec0       $unwind$init_script_number_translation 0000000180066ec0     c2_FLWSim.obj
 0002:00000ec8       $unwind$c2_sf_marshallOut  0000000180066ec8     c2_FLWSim.obj
 0002:00000ed8       $unwind$c2_emlrt_marshallIn 0000000180066ed8     c2_FLWSim.obj
 0002:00000ee0       $unwind$c2_b_emlrt_marshallIn 0000000180066ee0     c2_FLWSim.obj
 0002:00000ef0       $unwind$c2_sf_marshallIn   0000000180066ef0     c2_FLWSim.obj
 0002:00000f00       $unwind$c2_b_sf_marshallOut 0000000180066f00     c2_FLWSim.obj
 0002:00000f10       $unwind$c2_c_sf_marshallOut 0000000180066f10     c2_FLWSim.obj
 0002:00000f20       $unwind$c2_d_sf_marshallOut 0000000180066f20     c2_FLWSim.obj
 0002:00000f28       $unwind$c2_c_emlrt_marshallIn 0000000180066f28     c2_FLWSim.obj
 0002:00000f30       $unwind$c2_b_sf_marshallIn 0000000180066f30     c2_FLWSim.obj
 0002:00000f38       $unwind$c2_e_sf_marshallOut 0000000180066f38     c2_FLWSim.obj
 0002:00000f48       $unwind$c2_d_emlrt_marshallIn 0000000180066f48     c2_FLWSim.obj
 0002:00000f58       $unwind$c2_c_sf_marshallIn 0000000180066f58     c2_FLWSim.obj
 0002:00000f68       $unwind$c2_f_sf_marshallOut 0000000180066f68     c2_FLWSim.obj
 0002:00000f78       $unwind$c2_e_emlrt_marshallIn 0000000180066f78     c2_FLWSim.obj
 0002:00000f88       $unwind$c2_d_sf_marshallIn 0000000180066f88     c2_FLWSim.obj
 0002:00000f98       $unwind$c2_g_sf_marshallOut 0000000180066f98     c2_FLWSim.obj
 0002:00000fa8       $unwind$c2_f_emlrt_marshallIn 0000000180066fa8     c2_FLWSim.obj
 0002:00000fb8       $unwind$c2_e_sf_marshallIn 0000000180066fb8     c2_FLWSim.obj
 0002:00000fc8       $unwind$c2_h_sf_marshallOut 0000000180066fc8     c2_FLWSim.obj
 0002:00000fd8       $unwind$c2_i_sf_marshallOut 0000000180066fd8     c2_FLWSim.obj
 0002:00000fe8       $unwind$c2_g_emlrt_marshallIn 0000000180066fe8     c2_FLWSim.obj
 0002:00000ff8       $unwind$c2_f_sf_marshallIn 0000000180066ff8     c2_FLWSim.obj
 0002:00001008       $unwind$c2_invNxN          0000000180067008     c2_FLWSim.obj
 0002:00001018       $unwind$c2_check_forloop_overflow_error 0000000180067018     c2_FLWSim.obj
 0002:00001020       $unwind$c2_norm            0000000180067020     c2_FLWSim.obj
 0002:00001028       $unwind$c2_warning         0000000180067028     c2_FLWSim.obj
 0002:00001030       $unwind$c2_b_warning       0000000180067030     c2_FLWSim.obj
 0002:00001038       $unwind$c2_h_emlrt_marshallIn 0000000180067038     c2_FLWSim.obj
 0002:00001040       $unwind$c2_i_emlrt_marshallIn 0000000180067040     c2_FLWSim.obj
 0002:00001050       $unwind$c2_k_emlrt_marshallIn 0000000180067050     c2_FLWSim.obj
 0002:00001058       $unwind$c2_l_emlrt_marshallIn 0000000180067058     c2_FLWSim.obj
 0002:00001060       $unwind$init_simulink_io_address 0000000180067060     c2_FLWSim.obj
 0002:00001068       $unwind$sf_c2_FLWSim_get_post_codegen_info 0000000180067068     c2_FLWSim.obj
 0002:00001070       $unwind$sf_c2_FLWSim_get_autoinheritance_info 0000000180067070     c2_FLWSim.obj
 0002:00001080       $unwind$sf_c2_FLWSim_third_party_uses_info 0000000180067080     c2_FLWSim.obj
 0002:00001088       $unwind$sf_c2_FLWSim_jit_fallback_info 0000000180067088     c2_FLWSim.obj
 0002:00001098       $unwind$sf_c2_FLWSim_updateBuildInfo_args_info 0000000180067098     c2_FLWSim.obj
 0002:000010a0       $unwind$sf_get_sim_state_info_c2_FLWSim 00000001800670a0     c2_FLWSim.obj
 0002:000010a8       $unwind$sf_opaque_initialize_c2_FLWSim 00000001800670a8     c2_FLWSim.obj
 0002:000010b0       $unwind$sf_opaque_enable_c2_FLWSim 00000001800670b0     c2_FLWSim.obj
 0002:000010b8       $unwind$sf_opaque_disable_c2_FLWSim 00000001800670b8     c2_FLWSim.obj
 0002:000010c0       $unwind$sf_opaque_gateway_c2_FLWSim 00000001800670c0     c2_FLWSim.obj
 0002:000010c8       $unwind$sf_opaque_get_sim_state_c2_FLWSim 00000001800670c8     c2_FLWSim.obj
 0002:000010d0       $unwind$sf_opaque_set_sim_state_c2_FLWSim 00000001800670d0     c2_FLWSim.obj
 0002:000010d8       $unwind$sf_opaque_terminate_c2_FLWSim 00000001800670d8     c2_FLWSim.obj
 0002:000010e0       $unwind$mdlProcessParameters_c2_FLWSim 00000001800670e0     c2_FLWSim.obj
 0002:000010e8       $unwind$mdlSetWorkWidths_c2_FLWSim 00000001800670e8     c2_FLWSim.obj
 0002:000010f0       $unwind$mdlRTW_c2_FLWSim   00000001800670f0     c2_FLWSim.obj
 0002:000010f8       $unwind$mdlStart_c2_FLWSim 00000001800670f8     c2_FLWSim.obj
 0002:00001100       $unwind$sf_c3_FLWSim_get_eml_resolved_functions_info 0000000180067100     c3_FLWSim.obj
 0002:00001110       $unwind$sf_c3_FLWSim_get_check_sum 0000000180067110     c3_FLWSim.obj
 0002:00001118       $unwind$c3_FLWSim_method_dispatcher 0000000180067118     c3_FLWSim.obj
 0002:00001120       $unwind$chart_debug_initialization 0000000180067120     c3_FLWSim.obj
 0002:00001128       $unwind$chart_debug_initialize_data_addresses 0000000180067128     c3_FLWSim.obj
 0002:00001130       $unwind$initialize_c3_FLWSim 0000000180067130     c3_FLWSim.obj
 0002:00001138       $unwind$enable_c3_FLWSim   0000000180067138     c3_FLWSim.obj
 0002:00001140       $unwind$disable_c3_FLWSim  0000000180067140     c3_FLWSim.obj
 0002:00001148       $unwind$get_sim_state_c3_FLWSim 0000000180067148     c3_FLWSim.obj
 0002:00001150       $unwind$set_sim_state_c3_FLWSim 0000000180067150     c3_FLWSim.obj
 0002:00001160       $unwind$sf_gateway_c3_FLWSim 0000000180067160     c3_FLWSim.obj
 0002:00001168       $unwind$mdl_start_c3_FLWSim 0000000180067168     c3_FLWSim.obj
 0002:00001170       $unwind$c3_chartstep_c3_FLWSim 0000000180067170     c3_FLWSim.obj
 0002:00001180       $unwind$c3_p_LeftToe       0000000180067180     c3_FLWSim.obj
 0002:00001190       $unwind$c3_p_RightToe      0000000180067190     c3_FLWSim.obj
 0002:000011a0       $unwind$c3_Jp_LeftToe      00000001800671a0     c3_FLWSim.obj
 0002:000011b0       $unwind$c3_Jp_RightToe     00000001800671b0     c3_FLWSim.obj
 0002:000011c0       $unwind$c3_dJp_LeftToe     00000001800671c0     c3_FLWSim.obj
 0002:000011d0       $unwind$c3_dJp_RightToe    00000001800671d0     c3_FLWSim.obj
 0002:000011e0       $unwind$c3_InertiaMatrix   00000001800671e0     c3_FLWSim.obj
 0002:000011f0       $unwind$c3_CoriolisTerm    00000001800671f0     c3_FLWSim.obj
 0002:00001200       $unwind$c3_GravityVector   0000000180067200     c3_FLWSim.obj
 0002:00001210       $unwind$init_script_number_translation 0000000180067210     c3_FLWSim.obj
 0002:00001218       $unwind$c3_sf_marshallOut  0000000180067218     c3_FLWSim.obj
 0002:00001228       $unwind$c3_emlrt_marshallIn 0000000180067228     c3_FLWSim.obj
 0002:00001230       $unwind$c3_b_emlrt_marshallIn 0000000180067230     c3_FLWSim.obj
 0002:00001240       $unwind$c3_sf_marshallIn   0000000180067240     c3_FLWSim.obj
 0002:00001250       $unwind$c3_b_sf_marshallOut 0000000180067250     c3_FLWSim.obj
 0002:00001260       $unwind$c3_c_sf_marshallOut 0000000180067260     c3_FLWSim.obj
 0002:00001268       $unwind$c3_d_sf_marshallOut 0000000180067268     c3_FLWSim.obj
 0002:00001278       $unwind$c3_c_emlrt_marshallIn 0000000180067278     c3_FLWSim.obj
 0002:00001280       $unwind$c3_b_sf_marshallIn 0000000180067280     c3_FLWSim.obj
 0002:00001288       $unwind$c3_e_sf_marshallOut 0000000180067288     c3_FLWSim.obj
 0002:00001298       $unwind$c3_f_sf_marshallOut 0000000180067298     c3_FLWSim.obj
 0002:000012a8       $unwind$c3_g_sf_marshallOut 00000001800672a8     c3_FLWSim.obj
 0002:000012b8       $unwind$c3_d_emlrt_marshallIn 00000001800672b8     c3_FLWSim.obj
 0002:000012c8       $unwind$c3_c_sf_marshallIn 00000001800672c8     c3_FLWSim.obj
 0002:000012d8       $unwind$c3_h_sf_marshallOut 00000001800672d8     c3_FLWSim.obj
 0002:000012e8       $unwind$c3_e_emlrt_marshallIn 00000001800672e8     c3_FLWSim.obj
 0002:000012f8       $unwind$c3_d_sf_marshallIn 00000001800672f8     c3_FLWSim.obj
 0002:00001308       $unwind$c3_i_sf_marshallOut 0000000180067308     c3_FLWSim.obj
 0002:00001318       $unwind$c3_f_emlrt_marshallIn 0000000180067318     c3_FLWSim.obj
 0002:00001328       $unwind$c3_e_sf_marshallIn 0000000180067328     c3_FLWSim.obj
 0002:00001338       $unwind$c3_j_sf_marshallOut 0000000180067338     c3_FLWSim.obj
 0002:00001348       $unwind$c3_g_emlrt_marshallIn 0000000180067348     c3_FLWSim.obj
 0002:00001358       $unwind$c3_f_sf_marshallIn 0000000180067358     c3_FLWSim.obj
 0002:00001368       $unwind$c3_k_sf_marshallOut 0000000180067368     c3_FLWSim.obj
 0002:00001378       $unwind$c3_h_emlrt_marshallIn 0000000180067378     c3_FLWSim.obj
 0002:00001388       $unwind$c3_g_sf_marshallIn 0000000180067388     c3_FLWSim.obj
 0002:00001398       $unwind$c3_l_sf_marshallOut 0000000180067398     c3_FLWSim.obj
 0002:000013a8       $unwind$c3_m_sf_marshallOut 00000001800673a8     c3_FLWSim.obj
 0002:000013b8       $unwind$c3_i_emlrt_marshallIn 00000001800673b8     c3_FLWSim.obj
 0002:000013c8       $unwind$c3_h_sf_marshallIn 00000001800673c8     c3_FLWSim.obj
 0002:000013d8       $unwind$c3_n_sf_marshallOut 00000001800673d8     c3_FLWSim.obj
 0002:000013e8       $unwind$c3_j_emlrt_marshallIn 00000001800673e8     c3_FLWSim.obj
 0002:000013f8       $unwind$c3_i_sf_marshallIn 00000001800673f8     c3_FLWSim.obj
 0002:00001408       $unwind$c3_o_sf_marshallOut 0000000180067408     c3_FLWSim.obj
 0002:00001418       $unwind$c3_k_emlrt_marshallIn 0000000180067418     c3_FLWSim.obj
 0002:00001428       $unwind$c3_j_sf_marshallIn 0000000180067428     c3_FLWSim.obj
 0002:00001438       $unwind$c3_rem             0000000180067438     c3_FLWSim.obj
 0002:00001440       $unwind$c3_mod             0000000180067440     c3_FLWSim.obj
 0002:00001448       $unwind$c3_error           0000000180067448     c3_FLWSim.obj
 0002:00001450       $unwind$c3_mpower          0000000180067450     c3_FLWSim.obj
 0002:00001460       $unwind$c3_invNxN          0000000180067460     c3_FLWSim.obj
 0002:00001470       $unwind$c3_check_forloop_overflow_error 0000000180067470     c3_FLWSim.obj
 0002:00001478       $unwind$c3_norm            0000000180067478     c3_FLWSim.obj
 0002:00001480       $unwind$c3_warning         0000000180067480     c3_FLWSim.obj
 0002:00001488       $unwind$c3_b_warning       0000000180067488     c3_FLWSim.obj
 0002:00001490       $unwind$c3_b_mpower        0000000180067490     c3_FLWSim.obj
 0002:000014a0       $unwind$c3_b_invNxN        00000001800674a0     c3_FLWSim.obj
 0002:000014b0       $unwind$c3_b_norm          00000001800674b0     c3_FLWSim.obj
 0002:000014b8       $unwind$c3_l_emlrt_marshallIn 00000001800674b8     c3_FLWSim.obj
 0002:000014c0       $unwind$c3_m_emlrt_marshallIn 00000001800674c0     c3_FLWSim.obj
 0002:000014d0       $unwind$c3_o_emlrt_marshallIn 00000001800674d0     c3_FLWSim.obj
 0002:000014d8       $unwind$c3_p_emlrt_marshallIn 00000001800674d8     c3_FLWSim.obj
 0002:000014e0       $unwind$init_simulink_io_address 00000001800674e0     c3_FLWSim.obj
 0002:000014e8       $unwind$sf_c3_FLWSim_get_post_codegen_info 00000001800674e8     c3_FLWSim.obj
 0002:000014f0       $unwind$sf_c3_FLWSim_get_autoinheritance_info 00000001800674f0     c3_FLWSim.obj
 0002:00001500       $unwind$sf_c3_FLWSim_third_party_uses_info 0000000180067500     c3_FLWSim.obj
 0002:00001508       $unwind$sf_c3_FLWSim_jit_fallback_info 0000000180067508     c3_FLWSim.obj
 0002:00001518       $unwind$sf_c3_FLWSim_updateBuildInfo_args_info 0000000180067518     c3_FLWSim.obj
 0002:00001520       $unwind$sf_get_sim_state_info_c3_FLWSim 0000000180067520     c3_FLWSim.obj
 0002:00001528       $unwind$sf_opaque_initialize_c3_FLWSim 0000000180067528     c3_FLWSim.obj
 0002:00001530       $unwind$sf_opaque_enable_c3_FLWSim 0000000180067530     c3_FLWSim.obj
 0002:00001538       $unwind$sf_opaque_disable_c3_FLWSim 0000000180067538     c3_FLWSim.obj
 0002:00001540       $unwind$sf_opaque_gateway_c3_FLWSim 0000000180067540     c3_FLWSim.obj
 0002:00001548       $unwind$sf_opaque_get_sim_state_c3_FLWSim 0000000180067548     c3_FLWSim.obj
 0002:00001550       $unwind$sf_opaque_set_sim_state_c3_FLWSim 0000000180067550     c3_FLWSim.obj
 0002:00001558       $unwind$sf_opaque_terminate_c3_FLWSim 0000000180067558     c3_FLWSim.obj
 0002:00001560       $unwind$mdlProcessParameters_c3_FLWSim 0000000180067560     c3_FLWSim.obj
 0002:00001568       $unwind$mdlSetWorkWidths_c3_FLWSim 0000000180067568     c3_FLWSim.obj
 0002:00001570       $unwind$mdlRTW_c3_FLWSim   0000000180067570     c3_FLWSim.obj
 0002:00001578       $unwind$mdlStart_c3_FLWSim 0000000180067578     c3_FLWSim.obj
 0002:00001580       $unwind$_vsnprintf_l       0000000180067580     FLWSim_sfun_registry.obj
 0002:00001588       $unwind$_vsprintf_l        0000000180067588     FLWSim_sfun_registry.obj
 0002:00001590       $unwind$sprintf            0000000180067590     FLWSim_sfun_registry.obj
 0002:00001598       $unwind$mexFunction        0000000180067598     FLWSim_sfun_registry.obj
 0002:000015a8       $unwind$_ssSetInputPortDirectFeedThroughFcn 00000001800675a8     FLWSim_sfun_registry.obj
 0002:000015b8       $unwind$_ssGetInputPortSignalPtrsFcn 00000001800675b8     FLWSim_sfun_registry.obj
 0002:000015c8       $unwind$_ssGetInputPortSignalFcn 00000001800675c8     FLWSim_sfun_registry.obj
 0002:000015d8       $unwind$_ssSetInputPortReusableFcn 00000001800675d8     FLWSim_sfun_registry.obj
 0002:000015e0       $unwind$_ssSetOutputPortReusableFcn 00000001800675e0     FLWSim_sfun_registry.obj
 0002:000015e8       $unwind$_ssSetSymbolicDimsSupport 00000001800675e8     FLWSim_sfun_registry.obj
 0002:000015f0       $unwind$_ssRegisterSymbolicDimsExpr 00000001800675f0     FLWSim_sfun_registry.obj
 0002:000015f8       $unwind$_ssRegisterSymbolicDims 00000001800675f8     FLWSim_sfun_registry.obj
 0002:00001600       $unwind$_ssRegisterSymbolicDimsString 0000000180067600     FLWSim_sfun_registry.obj
 0002:00001608       $unwind$_ssRegisterSymbolicDimsIntValue 0000000180067608     FLWSim_sfun_registry.obj
 0002:00001610       $unwind$_ssRegisterSymbolicDimsPlus 0000000180067610     FLWSim_sfun_registry.obj
 0002:00001618       $unwind$_ssRegisterSymbolicDimsMinus 0000000180067618     FLWSim_sfun_registry.obj
 0002:00001620       $unwind$_ssRegisterSymbolicDimsMultiply 0000000180067620     FLWSim_sfun_registry.obj
 0002:00001628       $unwind$_ssRegisterSymbolicDimsDivide 0000000180067628     FLWSim_sfun_registry.obj
 0002:00001630       $unwind$_ssGetNumSymbolicDims 0000000180067630     FLWSim_sfun_registry.obj
 0002:00001638       $unwind$_ssGetSymbolicDim  0000000180067638     FLWSim_sfun_registry.obj
 0002:00001640       $unwind$_ssSetInputPortSymbolicDimsId 0000000180067640     FLWSim_sfun_registry.obj
 0002:00001648       $unwind$_ssGetCompInputPortSymbolicDimsId 0000000180067648     FLWSim_sfun_registry.obj
 0002:00001650       $unwind$_ssSetCompInputPortSymbolicDimsId 0000000180067650     FLWSim_sfun_registry.obj
 0002:00001658       $unwind$_ssSetOutputPortSymbolicDimsId 0000000180067658     FLWSim_sfun_registry.obj
 0002:00001660       $unwind$_ssGetCompOutputPortSymbolicDimsId 0000000180067660     FLWSim_sfun_registry.obj
 0002:00001668       $unwind$_ssSetCompOutputPortSymbolicDimsId 0000000180067668     FLWSim_sfun_registry.obj
 0002:00001670       $unwind$_ssSetCompDWorkSymbolicDimsId 0000000180067670     FLWSim_sfun_registry.obj
 0002:00001678       $unwind$ssGetIsZeroCrossControlDisabled 0000000180067678     FLWSim_sfun_registry.obj
 0002:00001680       $unwind$ssSetIsInputPortUsedForContZcSignal 0000000180067680     FLWSim_sfun_registry.obj
 0002:00001688       $unwind$ssSetZcSignalIsZcElementDisc 0000000180067688     FLWSim_sfun_registry.obj
 0002:00001698       $unwind$ssSetZcSignalName  0000000180067698     FLWSim_sfun_registry.obj
 0002:000016a0       $unwind$ssSetZcSignalWidth 00000001800676a0     FLWSim_sfun_registry.obj
 0002:000016a8       $unwind$ssSetZcSignalZcEventType 00000001800676a8     FLWSim_sfun_registry.obj
 0002:000016b0       $unwind$ssSetZcSignalType  00000001800676b0     FLWSim_sfun_registry.obj
 0002:000016b8       $unwind$ssSetZcSignalZcTol 00000001800676b8     FLWSim_sfun_registry.obj
 0002:000016c0       $unwind$ssSetZcSignalNeedsEventNotification 00000001800676c0     FLWSim_sfun_registry.obj
 0002:000016c8       $unwind$ssCreateAndAddZcSignalInfo 00000001800676c8     FLWSim_sfun_registry.obj
 0002:000016d0       $unwind$ssCloneAndAddZcSignalInfo 00000001800676d0     FLWSim_sfun_registry.obj
 0002:000016d8       $unwind$ssGetNumZcSignals  00000001800676d8     FLWSim_sfun_registry.obj
 0002:000016e0       $unwind$ssGetZcSignalVector 00000001800676e0     FLWSim_sfun_registry.obj
 0002:000016e8       $unwind$ssGetZcSignalName  00000001800676e8     FLWSim_sfun_registry.obj
 0002:000016f0       $unwind$ssGetZcSignalWidth 00000001800676f0     FLWSim_sfun_registry.obj
 0002:000016f8       $unwind$ssGetZcSignalZcEventType 00000001800676f8     FLWSim_sfun_registry.obj
 0002:00001700       $unwind$ssGetZcSignalZcEvents 0000000180067700     FLWSim_sfun_registry.obj
 0002:00001708       $unwind$ssGetZcSignalType  0000000180067708     FLWSim_sfun_registry.obj
 0002:00001710       $unwind$ssGetZcSignalZcTol 0000000180067710     FLWSim_sfun_registry.obj
 0002:00001718       $unwind$ssGetZcSignalNeedsEventNotification 0000000180067718     FLWSim_sfun_registry.obj
 0002:00001720       $unwind$ssGetZcSignalIsZcElementDisc 0000000180067720     FLWSim_sfun_registry.obj
 0002:00001730       $unwind$ssGetIsInputPortElementContinuous 0000000180067730     FLWSim_sfun_registry.obj
 0002:00001740       $unwind$_ssSetIWorkValueFcn 0000000180067740     FLWSim_sfun_registry.obj
 0002:00001748       $unwind$_ssGetIWorkValueFcn 0000000180067748     FLWSim_sfun_registry.obj
 0002:00001750       $unwind$_ssSetRWorkValueFcn 0000000180067750     FLWSim_sfun_registry.obj
 0002:00001758       $unwind$_ssGetRWorkValueFcn 0000000180067758     FLWSim_sfun_registry.obj
 0002:00001760       $unwind$_ssSetPWorkValueFcn 0000000180067760     FLWSim_sfun_registry.obj
 0002:00001768       $unwind$_ssGetPWorkValueFcn 0000000180067768     FLWSim_sfun_registry.obj
 0002:00001770       $unwind$ssGetDTypeIdFromMxArray 0000000180067770     FLWSim_sfun_registry.obj
 0002:00001778       $unwind$ssWriteRTWStr      0000000180067778     FLWSim_sfun_registry.obj
 0002:00001780       $unwind$ssWriteRTWNameValuePair 0000000180067780     FLWSim_sfun_registry.obj
 0002:00001788       $unwind$ssWriteRTWParamSettings 0000000180067788     FLWSim_sfun_registry.obj
 0002:00001790       $unwind$ssWriteRTWParameters 0000000180067790     FLWSim_sfun_registry.obj
 0002:00001798       $unwind$ssWriteRTWWorkVect 0000000180067798     FLWSim_sfun_registry.obj
 0002:000017ac       $unwind$ssWriteRTWMxVectParam 00000001800677ac     FLWSim_sfun_registry.obj
 0002:000017b4       $unwind$ssWriteRTWMx2dMatParam 00000001800677b4     FLWSim_sfun_registry.obj
 0002:000017bc       $unwind$_ssSetInputPortMatrixDimensions 00000001800677bc     FLWSim_sfun_registry.obj
 0002:000017c8       $unwind$_ssSetOutputPortMatrixDimensions 00000001800677c8     FLWSim_sfun_registry.obj
 0002:000017d4       $unwind$_ssSetInputPortVectorDimension 00000001800677d4     FLWSim_sfun_registry.obj
 0002:000017e0       $unwind$_ssSetOutputPortVectorDimension 00000001800677e0     FLWSim_sfun_registry.obj
 0002:000017ec       $unwind$ssIsRunTimeParamTunable 00000001800677ec     FLWSim_sfun_registry.obj
 0002:000017f4       $unwind$ssGetSFuncBlockHandle 00000001800677f4     FLWSim_sfun_registry.obj
 0002:000017fc       $unwind$_ssGetCurrentInputPortWidth 00000001800677fc     FLWSim_sfun_registry.obj
 0002:00001804       $unwind$_ssGetCurrentOutputPortWidth 0000000180067804     FLWSim_sfun_registry.obj
 0002:0000180c       $unwind$_ssGetCallSystemNumFcnCallDestinations 000000018006780c     FLWSim_sfun_registry.obj
 0002:00001814       $unwind$ssGetParameterTuningCompliance 0000000180067814     FLWSim_sfun_registry.obj
 0002:0000181c       $unwind$ssWarning          000000018006781c     FLWSim_sfun_registry.obj
 0002:00001830       $unwind$_ssGetAbsTol       0000000180067830     FLWSim_sfun_registry.obj
 0002:00001838       $unwind$sf_process_check_sum_call 0000000180067838     FLWSim_sfun_registry.obj
 0002:00001840       $unwind$sf_process_autoinheritance_call 0000000180067840     FLWSim_sfun_registry.obj
 0002:00001850       $unwind$sf_process_get_third_party_uses_info_call 0000000180067850     FLWSim_sfun_registry.obj
 0002:00001860       $unwind$sf_process_get_jit_fallback_info_call 0000000180067860     FLWSim_sfun_registry.obj
 0002:00001870       $unwind$sf_process_get_updateBuildInfo_args_info_call 0000000180067870     FLWSim_sfun_registry.obj
 0002:00001880       $unwind$sf_process_get_eml_resolved_functions_info_call 0000000180067880     FLWSim_sfun_registry.obj
 0002:00001890       $unwind$sf_mex_unlock_call 0000000180067890     FLWSim_sfun_registry.obj
 0002:000018a0       $unwind$sf_debug_api_wrapper 00000001800678a0     FLWSim_sfun_registry.obj
 0002:000018a8       $unwind$ProcessMexSfunctionCmdLineCall 00000001800678a8     FLWSim_sfun_registry.obj
 0002:000018b0       $unwind$sf_machine_global_initializer_called 00000001800678b0     FLWSim_sfun_registry.obj
 0002:000018b8       $unwind$sf_machine_global_method_dispatcher 00000001800678b8     FLWSim_sfun_registry.obj
 0002:000018c0       $unwind$sf_machine_global_terminator 00000001800678c0     FLWSim_sfun_registry.obj
 0002:000018c8       $unwind$sf_register_machine_exported_symbols 00000001800678c8     FLWSim_sfun_registry.obj
 0002:000018d0       $unwind$sf_machine_global_initializer 00000001800678d0     FLWSim_sfun_registry.obj
 0002:000018d8       $unwind$mdlGetSimState     00000001800678d8     FLWSim_sfun_registry.obj
 0002:000018e0       $unwind$mdlSetSimState     00000001800678e0     FLWSim_sfun_registry.obj
 0002:000018e8       $unwind$mdlSetWorkWidths   00000001800678e8     FLWSim_sfun_registry.obj
 0002:000018f0       $unwind$mdlProcessParameters 00000001800678f0     FLWSim_sfun_registry.obj
 0002:000018f8       $unwind$mdl_start_processing 00000001800678f8     FLWSim_sfun_registry.obj
 0002:00001900       $unwind$mdl_terminate_processing 0000000180067900     FLWSim_sfun_registry.obj
 0002:00001908       $unwind$mdlStart           0000000180067908     FLWSim_sfun_registry.obj
 0002:00001910       $unwind$mdlTerminate       0000000180067910     FLWSim_sfun_registry.obj
 0002:00001918       $unwind$mdlInitializeSizes 0000000180067918     FLWSim_sfun_registry.obj
 0002:00001920       $unwind$mdlInitializeSampleTimes 0000000180067920     FLWSim_sfun_registry.obj
 0002:00001928       $unwind$mdl_outputs_continuous_legacy 0000000180067928     FLWSim_sfun_registry.obj
 0002:00001930       $unwind$mdl_outputs_processing 0000000180067930     FLWSim_sfun_registry.obj
 0002:00001938       $unwind$mdl_zeroCrossings_processing 0000000180067938     FLWSim_sfun_registry.obj
 0002:00001940       $unwind$mdlZeroCrossings   0000000180067940     FLWSim_sfun_registry.obj
 0002:00001948       $unwind$mdl_derivatives_processing 0000000180067948     FLWSim_sfun_registry.obj
 0002:00001950       $unwind$mdlDerivatives     0000000180067950     FLWSim_sfun_registry.obj
 0002:00001958       $unwind$mdl_initialize_conditions_processing 0000000180067958     FLWSim_sfun_registry.obj
 0002:00001960       $unwind$mdlInitializeConditions 0000000180067960     FLWSim_sfun_registry.obj
 0002:00001968       $unwind$mdl_ext_mode_exec_processing 0000000180067968     FLWSim_sfun_registry.obj
 0002:00001970       $unwind$mdlExtModeExec     0000000180067970     FLWSim_sfun_registry.obj
 0002:00001978       $unwind$mdlRTW             0000000180067978     FLWSim_sfun_registry.obj
 0002:00001980       $unwind$mdl_enable_processing 0000000180067980     FLWSim_sfun_registry.obj
 0002:00001988       $unwind$mdlEnable          0000000180067988     FLWSim_sfun_registry.obj
 0002:00001990       $unwind$mdl_disable_processing 0000000180067990     FLWSim_sfun_registry.obj
 0002:00001998       $unwind$mdlDisable         0000000180067998     FLWSim_sfun_registry.obj
 0002:000019a0       $unwind$mdlOutputs         00000001800679a0     FLWSim_sfun_registry.obj
 0002:000019a8       $unwind$mdl_update_processing 00000001800679a8     FLWSim_sfun_registry.obj
 0002:000019b0       $unwind$mdlUpdate          00000001800679b0     FLWSim_sfun_registry.obj
 0002:000019b8       $unwind$ProcessMexSfunctionEveryCall 00000001800679b8     FLWSim_sfun_registry.obj
 0002:000019c0       $unwind$_RegNumInputPortsCB 00000001800679c0     FLWSim_sfun_registry.obj
 0002:000019c8       $unwind$_RegNumOutputPortsCB 00000001800679c8     FLWSim_sfun_registry.obj
 0002:000019d0       $unwind$_CreateSimStruct   00000001800679d0     FLWSim_sfun_registry.obj
 0002:000019d8       $unwind$_ProcessMexSfunctionCmdLineCall 00000001800679d8     FLWSim_sfun_registry.obj
 0002:000019e8       $unwind$ReportIndexOutOfBoundsError 00000001800679e8     FLWSim_sfun_registry.obj
 0002:000019f0       $unwind$CoriolisTerm_src   00000001800679f0     CoriolisTerm_src.obj
 0002:000019f8       $unwind$output1            00000001800679f8     CoriolisTerm_src.obj
 0002:00001a00       $unwind$Power              0000000180067a00     CoriolisTerm_src.obj
 0002:00001a08       $unwind$Sin                0000000180067a08     CoriolisTerm_src.obj
 0002:00001a10       $unwind$Cos                0000000180067a10     CoriolisTerm_src.obj
 0002:00001a18       $unwind$GravityVector_src  0000000180067a18     GravityVector_src.obj
 0002:00001a20       $unwind$output1            0000000180067a20     GravityVector_src.obj
 0002:00001a28       $unwind$InertiaMatrix_src  0000000180067a28     InertiaMatrix_src.obj
 0002:00001a30       $unwind$output1            0000000180067a30     InertiaMatrix_src.obj
 0002:00001a38       $unwind$AMBody_LeftShin_src 0000000180067a38     AMBody_LeftShin_src.obj
 0002:00001a40       $unwind$AMBody_LeftThigh_src 0000000180067a40     AMBody_LeftThigh_src.obj
 0002:00001a48       $unwind$AMBody_RightShin_src 0000000180067a48     AMBody_RightShin_src.obj
 0002:00001a50       $unwind$AMBody_RightThigh_src 0000000180067a50     AMBody_RightThigh_src.obj
 0002:00001a58       $unwind$AMBody_torso_src   0000000180067a58     AMBody_torso_src.obj
 0002:00001a60       $unwind$AMWorld_LeftShin_src 0000000180067a60     AMWorld_LeftShin_src.obj
 0002:00001a68       $unwind$AMWorld_LeftThigh_src 0000000180067a68     AMWorld_LeftThigh_src.obj
 0002:00001a70       $unwind$AMWorld_RightShin_src 0000000180067a70     AMWorld_RightShin_src.obj
 0002:00001a78       $unwind$AMWorld_RightThigh_src 0000000180067a78     AMWorld_RightThigh_src.obj
 0002:00001a80       $unwind$AMWorld_torso_src  0000000180067a80     AMWorld_torso_src.obj
 0002:00001a88       $unwind$dJb_Head_src       0000000180067a88     dJb_Head_src.obj
 0002:00001a90       $unwind$output1            0000000180067a90     dJb_Head_src.obj
 0002:00001a98       $unwind$dJb_LeftHip_src    0000000180067a98     dJb_LeftHip_src.obj
 0002:00001aa0       $unwind$output1            0000000180067aa0     dJb_LeftHip_src.obj
 0002:00001aa8       $unwind$dJb_LeftKnee_src   0000000180067aa8     dJb_LeftKnee_src.obj
 0002:00001ab0       $unwind$output1            0000000180067ab0     dJb_LeftKnee_src.obj
 0002:00001ab8       $unwind$dJb_LeftShin_src   0000000180067ab8     dJb_LeftShin_src.obj
 0002:00001ac0       $unwind$output1            0000000180067ac0     dJb_LeftShin_src.obj
 0002:00001ac8       $unwind$dJb_LeftThigh_src  0000000180067ac8     dJb_LeftThigh_src.obj
 0002:00001ad0       $unwind$output1            0000000180067ad0     dJb_LeftThigh_src.obj
 0002:00001ad8       $unwind$dJb_LeftToe_src    0000000180067ad8     dJb_LeftToe_src.obj
 0002:00001ae0       $unwind$output1            0000000180067ae0     dJb_LeftToe_src.obj
 0002:00001ae8       $unwind$dJb_RightHip_src   0000000180067ae8     dJb_RightHip_src.obj
 0002:00001af0       $unwind$output1            0000000180067af0     dJb_RightHip_src.obj
 0002:00001af8       $unwind$dJb_RightKnee_src  0000000180067af8     dJb_RightKnee_src.obj
 0002:00001b00       $unwind$output1            0000000180067b00     dJb_RightKnee_src.obj
 0002:00001b08       $unwind$dJb_RightShin_src  0000000180067b08     dJb_RightShin_src.obj
 0002:00001b10       $unwind$output1            0000000180067b10     dJb_RightShin_src.obj
 0002:00001b18       $unwind$dJb_RightThigh_src 0000000180067b18     dJb_RightThigh_src.obj
 0002:00001b20       $unwind$output1            0000000180067b20     dJb_RightThigh_src.obj
 0002:00001b28       $unwind$dJb_RightToe_src   0000000180067b28     dJb_RightToe_src.obj
 0002:00001b30       $unwind$output1            0000000180067b30     dJb_RightToe_src.obj
 0002:00001b38       $unwind$dJb_torso_src      0000000180067b38     dJb_torso_src.obj
 0002:00001b40       $unwind$output1            0000000180067b40     dJb_torso_src.obj
 0002:00001b48       $unwind$dJp_Head_src       0000000180067b48     dJp_Head_src.obj
 0002:00001b50       $unwind$output1            0000000180067b50     dJp_Head_src.obj
 0002:00001b58       $unwind$dJp_LeftHip_src    0000000180067b58     dJp_LeftHip_src.obj
 0002:00001b60       $unwind$dJp_LeftKnee_src   0000000180067b60     dJp_LeftKnee_src.obj
 0002:00001b68       $unwind$output1            0000000180067b68     dJp_LeftKnee_src.obj
 0002:00001b70       $unwind$dJp_LeftShin_src   0000000180067b70     dJp_LeftShin_src.obj
 0002:00001b78       $unwind$output1            0000000180067b78     dJp_LeftShin_src.obj
 0002:00001b80       $unwind$dJp_LeftThigh_src  0000000180067b80     dJp_LeftThigh_src.obj
 0002:00001b88       $unwind$output1            0000000180067b88     dJp_LeftThigh_src.obj
 0002:00001b90       $unwind$dJp_LeftToe_src    0000000180067b90     dJp_LeftToe_src.obj
 0002:00001b98       $unwind$output1            0000000180067b98     dJp_LeftToe_src.obj
 0002:00001ba0       $unwind$dJp_RightHip_src   0000000180067ba0     dJp_RightHip_src.obj
 0002:00001ba8       $unwind$dJp_RightKnee_src  0000000180067ba8     dJp_RightKnee_src.obj
 0002:00001bb0       $unwind$output1            0000000180067bb0     dJp_RightKnee_src.obj
 0002:00001bb8       $unwind$dJp_RightShin_src  0000000180067bb8     dJp_RightShin_src.obj
 0002:00001bc0       $unwind$output1            0000000180067bc0     dJp_RightShin_src.obj
 0002:00001bc8       $unwind$dJp_RightThigh_src 0000000180067bc8     dJp_RightThigh_src.obj
 0002:00001bd0       $unwind$output1            0000000180067bd0     dJp_RightThigh_src.obj
 0002:00001bd8       $unwind$dJp_RightToe_src   0000000180067bd8     dJp_RightToe_src.obj
 0002:00001be0       $unwind$output1            0000000180067be0     dJp_RightToe_src.obj
 0002:00001be8       $unwind$dJp_torso_src      0000000180067be8     dJp_torso_src.obj
 0002:00001bf0       $unwind$output1            0000000180067bf0     dJp_torso_src.obj
 0002:00001bf8       $unwind$dJs_Head_src       0000000180067bf8     dJs_Head_src.obj
 0002:00001c00       $unwind$dJs_LeftHip_src    0000000180067c00     dJs_LeftHip_src.obj
 0002:00001c08       $unwind$output1            0000000180067c08     dJs_LeftHip_src.obj
 0002:00001c10       $unwind$dJs_LeftKnee_src   0000000180067c10     dJs_LeftKnee_src.obj
 0002:00001c18       $unwind$output1            0000000180067c18     dJs_LeftKnee_src.obj
 0002:00001c20       $unwind$dJs_LeftShin_src   0000000180067c20     dJs_LeftShin_src.obj
 0002:00001c28       $unwind$output1            0000000180067c28     dJs_LeftShin_src.obj
 0002:00001c30       $unwind$dJs_LeftThigh_src  0000000180067c30     dJs_LeftThigh_src.obj
 0002:00001c38       $unwind$output1            0000000180067c38     dJs_LeftThigh_src.obj
 0002:00001c40       $unwind$dJs_LeftToe_src    0000000180067c40     dJs_LeftToe_src.obj
 0002:00001c48       $unwind$output1            0000000180067c48     dJs_LeftToe_src.obj
 0002:00001c50       $unwind$dJs_RightHip_src   0000000180067c50     dJs_RightHip_src.obj
 0002:00001c58       $unwind$output1            0000000180067c58     dJs_RightHip_src.obj
 0002:00001c60       $unwind$dJs_RightKnee_src  0000000180067c60     dJs_RightKnee_src.obj
 0002:00001c68       $unwind$output1            0000000180067c68     dJs_RightKnee_src.obj
 0002:00001c70       $unwind$dJs_RightShin_src  0000000180067c70     dJs_RightShin_src.obj
 0002:00001c78       $unwind$output1            0000000180067c78     dJs_RightShin_src.obj
 0002:00001c80       $unwind$dJs_RightThigh_src 0000000180067c80     dJs_RightThigh_src.obj
 0002:00001c88       $unwind$output1            0000000180067c88     dJs_RightThigh_src.obj
 0002:00001c90       $unwind$dJs_RightToe_src   0000000180067c90     dJs_RightToe_src.obj
 0002:00001c98       $unwind$output1            0000000180067c98     dJs_RightToe_src.obj
 0002:00001ca0       $unwind$dJs_torso_src      0000000180067ca0     dJs_torso_src.obj
 0002:00001ca8       $unwind$dR_Head_src        0000000180067ca8     dR_Head_src.obj
 0002:00001cb0       $unwind$output1            0000000180067cb0     dR_Head_src.obj
 0002:00001cb8       $unwind$dR_LeftHip_src     0000000180067cb8     dR_LeftHip_src.obj
 0002:00001cc0       $unwind$output1            0000000180067cc0     dR_LeftHip_src.obj
 0002:00001cc8       $unwind$dR_LeftKnee_src    0000000180067cc8     dR_LeftKnee_src.obj
 0002:00001cd0       $unwind$output1            0000000180067cd0     dR_LeftKnee_src.obj
 0002:00001cd8       $unwind$dR_LeftShin_src    0000000180067cd8     dR_LeftShin_src.obj
 0002:00001ce0       $unwind$output1            0000000180067ce0     dR_LeftShin_src.obj
 0002:00001ce8       $unwind$dR_LeftThigh_src   0000000180067ce8     dR_LeftThigh_src.obj
 0002:00001cf0       $unwind$output1            0000000180067cf0     dR_LeftThigh_src.obj
 0002:00001cf8       $unwind$dR_LeftToe_src     0000000180067cf8     dR_LeftToe_src.obj
 0002:00001d00       $unwind$output1            0000000180067d00     dR_LeftToe_src.obj
 0002:00001d08       $unwind$dR_RightHip_src    0000000180067d08     dR_RightHip_src.obj
 0002:00001d10       $unwind$output1            0000000180067d10     dR_RightHip_src.obj
 0002:00001d18       $unwind$dR_RightKnee_src   0000000180067d18     dR_RightKnee_src.obj
 0002:00001d20       $unwind$output1            0000000180067d20     dR_RightKnee_src.obj
 0002:00001d28       $unwind$dR_RightShin_src   0000000180067d28     dR_RightShin_src.obj
 0002:00001d30       $unwind$output1            0000000180067d30     dR_RightShin_src.obj
 0002:00001d38       $unwind$dR_RightThigh_src  0000000180067d38     dR_RightThigh_src.obj
 0002:00001d40       $unwind$output1            0000000180067d40     dR_RightThigh_src.obj
 0002:00001d48       $unwind$dR_RightToe_src    0000000180067d48     dR_RightToe_src.obj
 0002:00001d50       $unwind$output1            0000000180067d50     dR_RightToe_src.obj
 0002:00001d58       $unwind$dR_torso_src       0000000180067d58     dR_torso_src.obj
 0002:00001d60       $unwind$output1            0000000180067d60     dR_torso_src.obj
 0002:00001d68       $unwind$dT_Head_src        0000000180067d68     dT_Head_src.obj
 0002:00001d70       $unwind$output1            0000000180067d70     dT_Head_src.obj
 0002:00001d78       $unwind$dT_LeftHip_src     0000000180067d78     dT_LeftHip_src.obj
 0002:00001d80       $unwind$output1            0000000180067d80     dT_LeftHip_src.obj
 0002:00001d88       $unwind$dT_LeftKnee_src    0000000180067d88     dT_LeftKnee_src.obj
 0002:00001d90       $unwind$output1            0000000180067d90     dT_LeftKnee_src.obj
 0002:00001d98       $unwind$dT_LeftShin_src    0000000180067d98     dT_LeftShin_src.obj
 0002:00001da0       $unwind$output1            0000000180067da0     dT_LeftShin_src.obj
 0002:00001da8       $unwind$dT_LeftThigh_src   0000000180067da8     dT_LeftThigh_src.obj
 0002:00001db0       $unwind$output1            0000000180067db0     dT_LeftThigh_src.obj
 0002:00001db8       $unwind$dT_LeftToe_src     0000000180067db8     dT_LeftToe_src.obj
 0002:00001dc0       $unwind$output1            0000000180067dc0     dT_LeftToe_src.obj
 0002:00001dc8       $unwind$dT_RightHip_src    0000000180067dc8     dT_RightHip_src.obj
 0002:00001dd0       $unwind$output1            0000000180067dd0     dT_RightHip_src.obj
 0002:00001dd8       $unwind$dT_RightKnee_src   0000000180067dd8     dT_RightKnee_src.obj
 0002:00001de0       $unwind$output1            0000000180067de0     dT_RightKnee_src.obj
 0002:00001de8       $unwind$dT_RightShin_src   0000000180067de8     dT_RightShin_src.obj
 0002:00001df0       $unwind$output1            0000000180067df0     dT_RightShin_src.obj
 0002:00001df8       $unwind$dT_RightThigh_src  0000000180067df8     dT_RightThigh_src.obj
 0002:00001e00       $unwind$output1            0000000180067e00     dT_RightThigh_src.obj
 0002:00001e08       $unwind$dT_RightToe_src    0000000180067e08     dT_RightToe_src.obj
 0002:00001e10       $unwind$output1            0000000180067e10     dT_RightToe_src.obj
 0002:00001e18       $unwind$dT_torso_src       0000000180067e18     dT_torso_src.obj
 0002:00001e20       $unwind$output1            0000000180067e20     dT_torso_src.obj
 0002:00001e28       $unwind$Inertia_LeftShin_src 0000000180067e28     Inertia_LeftShin_src.obj
 0002:00001e30       $unwind$Inertia_LeftThigh_src 0000000180067e30     Inertia_LeftThigh_src.obj
 0002:00001e38       $unwind$Inertia_RightShin_src 0000000180067e38     Inertia_RightShin_src.obj
 0002:00001e40       $unwind$Inertia_RightThigh_src 0000000180067e40     Inertia_RightThigh_src.obj
 0002:00001e48       $unwind$Inertia_torso_src  0000000180067e48     Inertia_torso_src.obj
 0002:00001e50       $unwind$Jb_Head_src        0000000180067e50     Jb_Head_src.obj
 0002:00001e58       $unwind$output1            0000000180067e58     Jb_Head_src.obj
 0002:00001e60       $unwind$Jb_LeftHip_src     0000000180067e60     Jb_LeftHip_src.obj
 0002:00001e68       $unwind$output1            0000000180067e68     Jb_LeftHip_src.obj
 0002:00001e70       $unwind$Jb_LeftKnee_src    0000000180067e70     Jb_LeftKnee_src.obj
 0002:00001e78       $unwind$output1            0000000180067e78     Jb_LeftKnee_src.obj
 0002:00001e80       $unwind$Jb_LeftShin_src    0000000180067e80     Jb_LeftShin_src.obj
 0002:00001e88       $unwind$output1            0000000180067e88     Jb_LeftShin_src.obj
 0002:00001e90       $unwind$Jb_LeftThigh_src   0000000180067e90     Jb_LeftThigh_src.obj
 0002:00001e98       $unwind$output1            0000000180067e98     Jb_LeftThigh_src.obj
 0002:00001ea0       $unwind$Jb_LeftToe_src     0000000180067ea0     Jb_LeftToe_src.obj
 0002:00001ea8       $unwind$output1            0000000180067ea8     Jb_LeftToe_src.obj
 0002:00001eb0       $unwind$Jb_RightHip_src    0000000180067eb0     Jb_RightHip_src.obj
 0002:00001eb8       $unwind$output1            0000000180067eb8     Jb_RightHip_src.obj
 0002:00001ec0       $unwind$Jb_RightKnee_src   0000000180067ec0     Jb_RightKnee_src.obj
 0002:00001ec8       $unwind$output1            0000000180067ec8     Jb_RightKnee_src.obj
 0002:00001ed0       $unwind$Jb_RightShin_src   0000000180067ed0     Jb_RightShin_src.obj
 0002:00001ed8       $unwind$output1            0000000180067ed8     Jb_RightShin_src.obj
 0002:00001ee0       $unwind$Jb_RightThigh_src  0000000180067ee0     Jb_RightThigh_src.obj
 0002:00001ee8       $unwind$output1            0000000180067ee8     Jb_RightThigh_src.obj
 0002:00001ef0       $unwind$Jb_RightToe_src    0000000180067ef0     Jb_RightToe_src.obj
 0002:00001ef8       $unwind$output1            0000000180067ef8     Jb_RightToe_src.obj
 0002:00001f00       $unwind$Jb_torso_src       0000000180067f00     Jb_torso_src.obj
 0002:00001f08       $unwind$output1            0000000180067f08     Jb_torso_src.obj
 0002:00001f10       $unwind$Jp_Head_src        0000000180067f10     Jp_Head_src.obj
 0002:00001f18       $unwind$output1            0000000180067f18     Jp_Head_src.obj
 0002:00001f20       $unwind$Jp_LeftHip_src     0000000180067f20     Jp_LeftHip_src.obj
 0002:00001f28       $unwind$Jp_LeftKnee_src    0000000180067f28     Jp_LeftKnee_src.obj
 0002:00001f30       $unwind$output1            0000000180067f30     Jp_LeftKnee_src.obj
 0002:00001f38       $unwind$Jp_LeftShin_src    0000000180067f38     Jp_LeftShin_src.obj
 0002:00001f40       $unwind$output1            0000000180067f40     Jp_LeftShin_src.obj
 0002:00001f48       $unwind$Jp_LeftThigh_src   0000000180067f48     Jp_LeftThigh_src.obj
 0002:00001f50       $unwind$output1            0000000180067f50     Jp_LeftThigh_src.obj
 0002:00001f58       $unwind$Jp_LeftToe_src     0000000180067f58     Jp_LeftToe_src.obj
 0002:00001f60       $unwind$output1            0000000180067f60     Jp_LeftToe_src.obj
 0002:00001f68       $unwind$Jp_RightHip_src    0000000180067f68     Jp_RightHip_src.obj
 0002:00001f70       $unwind$Jp_RightKnee_src   0000000180067f70     Jp_RightKnee_src.obj
 0002:00001f78       $unwind$output1            0000000180067f78     Jp_RightKnee_src.obj
 0002:00001f80       $unwind$Jp_RightShin_src   0000000180067f80     Jp_RightShin_src.obj
 0002:00001f88       $unwind$output1            0000000180067f88     Jp_RightShin_src.obj
 0002:00001f90       $unwind$Jp_RightThigh_src  0000000180067f90     Jp_RightThigh_src.obj
 0002:00001f98       $unwind$output1            0000000180067f98     Jp_RightThigh_src.obj
 0002:00001fa0       $unwind$Jp_RightToe_src    0000000180067fa0     Jp_RightToe_src.obj
 0002:00001fa8       $unwind$output1            0000000180067fa8     Jp_RightToe_src.obj
 0002:00001fb0       $unwind$Jp_torso_src       0000000180067fb0     Jp_torso_src.obj
 0002:00001fb8       $unwind$output1            0000000180067fb8     Jp_torso_src.obj
 0002:00001fc0       $unwind$Js_Head_src        0000000180067fc0     Js_Head_src.obj
 0002:00001fc8       $unwind$Js_LeftHip_src     0000000180067fc8     Js_LeftHip_src.obj
 0002:00001fd0       $unwind$output1            0000000180067fd0     Js_LeftHip_src.obj
 0002:00001fd8       $unwind$Js_LeftKnee_src    0000000180067fd8     Js_LeftKnee_src.obj
 0002:00001fe0       $unwind$output1            0000000180067fe0     Js_LeftKnee_src.obj
 0002:00001fe8       $unwind$Js_LeftShin_src    0000000180067fe8     Js_LeftShin_src.obj
 0002:00001ff0       $unwind$output1            0000000180067ff0     Js_LeftShin_src.obj
 0002:00001ff8       $unwind$Js_LeftThigh_src   0000000180067ff8     Js_LeftThigh_src.obj
 0002:00002000       $unwind$output1            0000000180068000     Js_LeftThigh_src.obj
 0002:00002008       $unwind$Js_LeftToe_src     0000000180068008     Js_LeftToe_src.obj
 0002:00002010       $unwind$output1            0000000180068010     Js_LeftToe_src.obj
 0002:00002018       $unwind$Js_RightHip_src    0000000180068018     Js_RightHip_src.obj
 0002:00002020       $unwind$output1            0000000180068020     Js_RightHip_src.obj
 0002:00002028       $unwind$Js_RightKnee_src   0000000180068028     Js_RightKnee_src.obj
 0002:00002030       $unwind$output1            0000000180068030     Js_RightKnee_src.obj
 0002:00002038       $unwind$Js_RightShin_src   0000000180068038     Js_RightShin_src.obj
 0002:00002040       $unwind$output1            0000000180068040     Js_RightShin_src.obj
 0002:00002048       $unwind$Js_RightThigh_src  0000000180068048     Js_RightThigh_src.obj
 0002:00002050       $unwind$output1            0000000180068050     Js_RightThigh_src.obj
 0002:00002058       $unwind$Js_RightToe_src    0000000180068058     Js_RightToe_src.obj
 0002:00002060       $unwind$output1            0000000180068060     Js_RightToe_src.obj
 0002:00002068       $unwind$Js_torso_src       0000000180068068     Js_torso_src.obj
 0002:00002070       $unwind$p_Head_src         0000000180068070     p_Head_src.obj
 0002:00002078       $unwind$output1            0000000180068078     p_Head_src.obj
 0002:00002080       $unwind$p_LeftHip_src      0000000180068080     p_LeftHip_src.obj
 0002:00002088       $unwind$p_LeftKnee_src     0000000180068088     p_LeftKnee_src.obj
 0002:00002090       $unwind$output1            0000000180068090     p_LeftKnee_src.obj
 0002:00002098       $unwind$p_LeftShin_src     0000000180068098     p_LeftShin_src.obj
 0002:000020a0       $unwind$output1            00000001800680a0     p_LeftShin_src.obj
 0002:000020a8       $unwind$p_LeftThigh_src    00000001800680a8     p_LeftThigh_src.obj
 0002:000020b0       $unwind$output1            00000001800680b0     p_LeftThigh_src.obj
 0002:000020b8       $unwind$p_LeftToe_src      00000001800680b8     p_LeftToe_src.obj
 0002:000020c0       $unwind$output1            00000001800680c0     p_LeftToe_src.obj
 0002:000020c8       $unwind$p_RightHip_src     00000001800680c8     p_RightHip_src.obj
 0002:000020d0       $unwind$p_RightKnee_src    00000001800680d0     p_RightKnee_src.obj
 0002:000020d8       $unwind$output1            00000001800680d8     p_RightKnee_src.obj
 0002:000020e0       $unwind$p_RightShin_src    00000001800680e0     p_RightShin_src.obj
 0002:000020e8       $unwind$output1            00000001800680e8     p_RightShin_src.obj
 0002:000020f0       $unwind$p_RightThigh_src   00000001800680f0     p_RightThigh_src.obj
 0002:000020f8       $unwind$output1            00000001800680f8     p_RightThigh_src.obj
 0002:00002100       $unwind$p_RightToe_src     0000000180068100     p_RightToe_src.obj
 0002:00002108       $unwind$output1            0000000180068108     p_RightToe_src.obj
 0002:00002110       $unwind$p_torso_src        0000000180068110     p_torso_src.obj
 0002:00002118       $unwind$output1            0000000180068118     p_torso_src.obj
 0002:00002120       $unwind$R_Head_src         0000000180068120     R_Head_src.obj
 0002:00002128       $unwind$output1            0000000180068128     R_Head_src.obj
 0002:00002130       $unwind$R_LeftHip_src      0000000180068130     R_LeftHip_src.obj
 0002:00002138       $unwind$output1            0000000180068138     R_LeftHip_src.obj
 0002:00002140       $unwind$R_LeftKnee_src     0000000180068140     R_LeftKnee_src.obj
 0002:00002148       $unwind$output1            0000000180068148     R_LeftKnee_src.obj
 0002:00002150       $unwind$R_LeftShin_src     0000000180068150     R_LeftShin_src.obj
 0002:00002158       $unwind$output1            0000000180068158     R_LeftShin_src.obj
 0002:00002160       $unwind$R_LeftThigh_src    0000000180068160     R_LeftThigh_src.obj
 0002:00002168       $unwind$output1            0000000180068168     R_LeftThigh_src.obj
 0002:00002170       $unwind$R_LeftToe_src      0000000180068170     R_LeftToe_src.obj
 0002:00002178       $unwind$output1            0000000180068178     R_LeftToe_src.obj
 0002:00002180       $unwind$R_RightHip_src     0000000180068180     R_RightHip_src.obj
 0002:00002188       $unwind$output1            0000000180068188     R_RightHip_src.obj
 0002:00002190       $unwind$R_RightKnee_src    0000000180068190     R_RightKnee_src.obj
 0002:00002198       $unwind$output1            0000000180068198     R_RightKnee_src.obj
 0002:000021a0       $unwind$R_RightShin_src    00000001800681a0     R_RightShin_src.obj
 0002:000021a8       $unwind$output1            00000001800681a8     R_RightShin_src.obj
 0002:000021b0       $unwind$R_RightThigh_src   00000001800681b0     R_RightThigh_src.obj
 0002:000021b8       $unwind$output1            00000001800681b8     R_RightThigh_src.obj
 0002:000021c0       $unwind$R_RightToe_src     00000001800681c0     R_RightToe_src.obj
 0002:000021c8       $unwind$output1            00000001800681c8     R_RightToe_src.obj
 0002:000021d0       $unwind$R_torso_src        00000001800681d0     R_torso_src.obj
 0002:000021d8       $unwind$output1            00000001800681d8     R_torso_src.obj
 0002:000021e0       $unwind$T_Head_src         00000001800681e0     T_Head_src.obj
 0002:000021e8       $unwind$output1            00000001800681e8     T_Head_src.obj
 0002:000021f0       $unwind$T_LeftHip_src      00000001800681f0     T_LeftHip_src.obj
 0002:000021f8       $unwind$output1            00000001800681f8     T_LeftHip_src.obj
 0002:00002200       $unwind$T_LeftKnee_src     0000000180068200     T_LeftKnee_src.obj
 0002:00002208       $unwind$output1            0000000180068208     T_LeftKnee_src.obj
 0002:00002210       $unwind$T_LeftShin_src     0000000180068210     T_LeftShin_src.obj
 0002:00002218       $unwind$output1            0000000180068218     T_LeftShin_src.obj
 0002:00002220       $unwind$T_LeftThigh_src    0000000180068220     T_LeftThigh_src.obj
 0002:00002228       $unwind$output1            0000000180068228     T_LeftThigh_src.obj
 0002:00002230       $unwind$T_LeftToe_src      0000000180068230     T_LeftToe_src.obj
 0002:00002238       $unwind$output1            0000000180068238     T_LeftToe_src.obj
 0002:00002240       $unwind$T_RightHip_src     0000000180068240     T_RightHip_src.obj
 0002:00002248       $unwind$output1            0000000180068248     T_RightHip_src.obj
 0002:00002250       $unwind$T_RightKnee_src    0000000180068250     T_RightKnee_src.obj
 0002:00002258       $unwind$output1            0000000180068258     T_RightKnee_src.obj
 0002:00002260       $unwind$T_RightShin_src    0000000180068260     T_RightShin_src.obj
 0002:00002268       $unwind$output1            0000000180068268     T_RightShin_src.obj
 0002:00002270       $unwind$T_RightThigh_src   0000000180068270     T_RightThigh_src.obj
 0002:00002278       $unwind$output1            0000000180068278     T_RightThigh_src.obj
 0002:00002280       $unwind$T_RightToe_src     0000000180068280     T_RightToe_src.obj
 0002:00002288       $unwind$output1            0000000180068288     T_RightToe_src.obj
 0002:00002290       $unwind$T_torso_src        0000000180068290     T_torso_src.obj
 0002:00002298       $unwind$output1            0000000180068298     T_torso_src.obj
 0002:000022a0       $unwind$__report_securityfailure 00000001800682a0     MSVCRT:gs_report.obj
 0002:000022a8       $unwind$__report_securityfailureEx 00000001800682a8     MSVCRT:gs_report.obj
 0002:000022b0       $unwind$__report_rangecheckfailure 00000001800682b0     MSVCRT:gs_report.obj
 0002:000022b8       $unwind$__report_gsfailure 00000001800682b8     MSVCRT:gs_report.obj
 0002:000022c0       $unwind$capture_current_context 00000001800682c0     MSVCRT:gs_report.obj
 0002:000022cc       $unwind$capture_previous_context 00000001800682cc     MSVCRT:gs_report.obj
 0002:000022d8       $unwind$__raise_securityfailure 00000001800682d8     MSVCRT:gs_report.obj
 0002:000022e0       $unwind$__GSHandlerCheckCommon 00000001800682e0     MSVCRT:_gshandler_.obj
 0002:000022e8       $unwind$__GSHandlerCheck   00000001800682e8     MSVCRT:_gshandler_.obj
 0002:000022f0       $xdatasym                  00000001800682f0     MSVCRT:_amdsecgs_.obj
 0002:000022f8       $xdatasym                  00000001800682f8     MSVCRT:_chkstk_.obj
 0002:00002300       $unwind$?dllmain_crt_process_attach@@YAHQEAUHINSTANCE__@@QEAX@Z 0000000180068300     MSVCRT:dll_dllmain.obj
 0002:0000232c       $unwind$?fin$0@?0??dllmain_crt_process_attach@@YAHQEAUHINSTANCE__@@QEAX@Z@4HA 000000018006832c     MSVCRT:dll_dllmain.obj
 0002:00002334       $unwind$?dllmain_crt_process_detach@@YAH_N@Z 0000000180068334     MSVCRT:dll_dllmain.obj
 0002:0000235c       $unwind$?fin$0@?0??dllmain_crt_process_detach@@YAH_N@Z@4HA 000000018006835c     MSVCRT:dll_dllmain.obj
 0002:00002364       $unwind$?dllmain_crt_dispatch@@YAHQEAUHINSTANCE__@@KQEAX@Z 0000000180068364     MSVCRT:dll_dllmain.obj
 0002:0000236c       $unwind$?dllmain_raw@@YAHQEAUHINSTANCE__@@KQEAX@Z 000000018006836c     MSVCRT:dll_dllmain.obj
 0002:00002380       $unwind$?dllmain_dispatch@@YAHQEAUHINSTANCE__@@KQEAX@Z 0000000180068380     MSVCRT:dll_dllmain.obj
 0002:000023a8       $unwind$?filt$0@?0??dllmain_dispatch@@YAHQEAUHINSTANCE__@@KQEAX@Z@4HA 00000001800683a8     MSVCRT:dll_dllmain.obj
 0002:000023b0       $unwind$_DllMainCRTStartup 00000001800683b0     MSVCRT:dll_dllmain.obj
 0002:000023c0       $unwind$atexit             00000001800683c0     MSVCRT:utility.obj
 0002:000023c8       $unwind$_onexit            00000001800683c8     MSVCRT:utility.obj
 0002:000023d0       $unwind$__scrt_is_nonwritable_in_current_image 00000001800683d0     MSVCRT:utility.obj
 0002:000023f0       $unwind$__scrt_is_nonwritable_in_current_image$filt$0 00000001800683f0     MSVCRT:utility.obj
 0002:000023f8       $unwind$__scrt_acquire_startup_lock 00000001800683f8     MSVCRT:utility.obj
 0002:00002400       $unwind$__scrt_release_startup_lock 0000000180068400     MSVCRT:utility.obj
 0002:00002408       $unwind$__scrt_initialize_crt 0000000180068408     MSVCRT:utility.obj
 0002:00002410       $unwind$__scrt_uninitialize_crt 0000000180068410     MSVCRT:utility.obj
 0002:00002418       $unwind$__scrt_initialize_onexit_tables 0000000180068418     MSVCRT:utility.obj
 0002:00002424       $unwind$__scrt_dllmain_exception_filter 0000000180068424     MSVCRT:utility.obj
 0002:00002438       $unwind$__scrt_dllmain_before_initialize_c 0000000180068438     MSVCRT:utility.obj
 0002:00002440       $unwind$__scrt_dllmain_after_initialize_c 0000000180068440     MSVCRT:utility.obj
 0002:00002448       $unwind$__scrt_dllmain_uninitialize_c 0000000180068448     MSVCRT:utility.obj
 0002:00002450       $unwind$__scrt_dllmain_uninitialize_critical 0000000180068450     MSVCRT:utility.obj
 0002:00002458       $unwind$__scrt_dllmain_crt_thread_attach 0000000180068458     MSVCRT:utility.obj
 0002:00002460       $unwind$__scrt_dllmain_crt_thread_detach 0000000180068460     MSVCRT:utility.obj
 0002:00002468       $unwind$?configure_argv@__scrt_narrow_argv_policy@@SAHXZ 0000000180068468     MSVCRT:utility.obj
 0002:00002470       $unwind$__security_init_cookie 0000000180068470     MSVCRT:gs_support.obj
 0002:0000247c       $unwind$DllMain            000000018006847c     MSVCRT:dll_dllmain_stub.obj
 0002:00002484       $unwind$__scrt_initialize_default_local_stdio_options 0000000180068484     MSVCRT:default_local_stdio_options.obj
 0002:0000248c       $unwind$__scrt_get_show_window_mode 000000018006848c     MSVCRT:utility_desktop.obj
 0002:00002494       $unwind$__scrt_is_managed_app 0000000180068494     MSVCRT:utility_desktop.obj
 0002:0000249c       $unwind$__scrt_fastfail    000000018006849c     MSVCRT:utility_desktop.obj
 0002:000024ac       $unwind$__scrt_unhandled_exception_filter 00000001800684ac     MSVCRT:utility_desktop.obj
 0002:000024b4       $unwind$_RTC_Initialize    00000001800684b4     MSVCRT:_initsect_.obj
 0002:000024c4       $unwind$_RTC_Terminate     00000001800684c4     MSVCRT:_initsect_.obj
 0002:000024d4       $unwind$__isa_available_init 00000001800684d4     MSVCRT:_cpu_disp_.obj
 0002:000024e8       $xdatasym                  00000001800684e8     MSVCRT:_guard_dispatch_.obj
 0002:000024f0       .edata                     00000001800684f0     FLWSim_sfun.exp
 0002:00002518       rgpv                       0000000180068518     FLWSim_sfun.exp
 0002:00002520       rgszName                   0000000180068520     FLWSim_sfun.exp
 0002:00002528       rgwOrd                     0000000180068528     FLWSim_sfun.exp
 0002:0000252c       szName                     000000018006852c     FLWSim_sfun.exp
 0002:0000253f       $N00001                    000000018006853f     FLWSim_sfun.exp
 0002:0000254b       $N00002                    000000018006854b     FLWSim_sfun.exp
 0002:00002c10       .idata$6                   0000000180068c10     libmwblas:libmwblas.dll
 0002:00003510       .idata$6                   0000000180069510     sf_runtime:sf_runtime.dll
 0002:000036a4       .idata$6                   00000001800696a4     libmx:libmx.dll
 0002:00003726       .idata$6                   0000000180069726     libmex:libmex.dll
 0002:00003748       .idata$6                   0000000180069748     libut:libut.dll
 0002:000037d2       .idata$6                   00000001800697d2     libmwmathutil:libmwmathutil.dll
 0002:00003804       .idata$6                   0000000180069804     libemlrt:libemlrt.dll
 0002:0000399e       .idata$6                   000000018006999e     kernel32:KERNEL32.dll
 0002:000039f8       .idata$6                   00000001800699f8     vcruntime:VCRUNTIME140.dll
 0002:00003b4e       .idata$6                   0000000180069b4e     ucrt:api-ms-win-crt-string-l1-1-0.dll
 0002:00003b70       .idata$6                   0000000180069b70     ucrt:api-ms-win-crt-stdio-l1-1-0.dll
 0002:00003b90       .idata$6                   0000000180069b90     ucrt:api-ms-win-crt-heap-l1-1-0.dll
 0002:00003bb0       .idata$6                   0000000180069bb0     ucrt:api-ms-win-crt-math-l1-1-0.dll
 0002:00003bd0       .idata$6                   0000000180069bd0     ucrt:api-ms-win-crt-runtime-l1-1-0.dll
 0003:00000000       $SG23582                   000000018006a000     FLWSim_sfun.obj
 0003:00000020       $SG23585                   000000018006a020     FLWSim_sfun.obj
 0003:00000038       $SG23588                   000000018006a038     FLWSim_sfun.obj
 0003:00000050       $SG23591                   000000018006a050     FLWSim_sfun.obj
 0003:00000068       $SG23597                   000000018006a068     FLWSim_sfun.obj
 0003:00000070       $SG23598                   000000018006a070     FLWSim_sfun.obj
 0003:00000078       $SG23623                   000000018006a078     FLWSim_sfun.obj
 0003:00000080       $SG23624                   000000018006a080     FLWSim_sfun.obj
 0003:00000088       $SG23361                   000000018006a088     FLWSim_sfun.obj
 0003:000000a0       $SG23366                   000000018006a0a0     FLWSim_sfun.obj
 0003:000000a8       $SG23369                   000000018006a0a8     FLWSim_sfun.obj
 0003:000000b0       $SG23376                   000000018006a0b0     FLWSim_sfun.obj
 0003:000000b8       $SG23408                   000000018006a0b8     FLWSim_sfun.obj
 0003:000000d8       $SG23411                   000000018006a0d8     FLWSim_sfun.obj
 0003:000000f0       $SG23414                   000000018006a0f0     FLWSim_sfun.obj
 0003:00000108       $SG23417                   000000018006a108     FLWSim_sfun.obj
 0003:00000120       $SG23456                   000000018006a120     FLWSim_sfun.obj
 0003:00000140       $SG23459                   000000018006a140     FLWSim_sfun.obj
 0003:00000158       $SG23462                   000000018006a158     FLWSim_sfun.obj
 0003:00000170       $SG23465                   000000018006a170     FLWSim_sfun.obj
 0003:00000188       $SG23498                   000000018006a188     FLWSim_sfun.obj
 0003:000001a8       $SG23501                   000000018006a1a8     FLWSim_sfun.obj
 0003:000001c0       $SG23504                   000000018006a1c0     FLWSim_sfun.obj
 0003:000001d8       $SG23507                   000000018006a1d8     FLWSim_sfun.obj
 0003:000001f0       $SG23540                   000000018006a1f0     FLWSim_sfun.obj
 0003:00000208       $SG23543                   000000018006a208     FLWSim_sfun.obj
 0003:00000220       $SG23546                   000000018006a220     FLWSim_sfun.obj
 0003:00000238       $SG23549                   000000018006a238     FLWSim_sfun.obj
 0003:00000250       $SG24583                   000000018006a250     c1_FLWSim.obj
 0003:000002b0       $SG23559                   000000018006a2b0     c1_FLWSim.obj
 0003:000002b4       $SG23560                   000000018006a2b4     c1_FLWSim.obj
 0003:000002b8       $SG23561                   000000018006a2b8     c1_FLWSim.obj
 0003:000002bc       $SG23783                   000000018006a2bc     c1_FLWSim.obj
 0003:000002c0       $SG23562                   000000018006a2c0     c1_FLWSim.obj
 0003:000002d4       $SG23851                   000000018006a2d4     c1_FLWSim.obj
 0003:000002d8       $SG24230                   000000018006a2d8     c1_FLWSim.obj
 0003:000002e0       $SG23760                   000000018006a2e0     c1_FLWSim.obj
 0003:00000350       $SG23761                   000000018006a350     c1_FLWSim.obj
 0003:000003c0       $SG23762                   000000018006a3c0     c1_FLWSim.obj
 0003:00000430       $SG23763                   000000018006a430     c1_FLWSim.obj
 0003:000004a0       $SG23919                   000000018006a4a0     c1_FLWSim.obj
 0003:000004a4       $SG23935                   000000018006a4a4     c1_FLWSim.obj
 0003:000004a8       $SG23982                   000000018006a4a8     c1_FLWSim.obj
 0003:000004ac       $SG24043                   000000018006a4ac     c1_FLWSim.obj
 0003:000004b0       $SG24091                   000000018006a4b0     c1_FLWSim.obj
 0003:000005b4       $SG24118                   000000018006a5b4     c1_FLWSim.obj
 0003:000005b8       $SG24231                   000000018006a5b8     c1_FLWSim.obj
 0003:000005c0       $SG24092                   000000018006a5c0     c1_FLWSim.obj
 0003:000006c8       $SG24232                   000000018006a6c8     c1_FLWSim.obj
 0003:000006d8       $SG24234                   000000018006a6d8     c1_FLWSim.obj
 0003:000006e0       $SG24093                   000000018006a6e0     c1_FLWSim.obj
 0003:000007e8       $SG24233                   000000018006a7e8     c1_FLWSim.obj
 0003:000007f8       $SG24235                   000000018006a7f8     c1_FLWSim.obj
 0003:00000800       $SG24094                   000000018006a800     c1_FLWSim.obj
 0003:00000904       $SG24236                   000000018006a904     c1_FLWSim.obj
 0003:00000910       $SG24095                   000000018006a910     c1_FLWSim.obj
 0003:00000a14       $SG24237                   000000018006aa14     c1_FLWSim.obj
 0003:00000a20       $SG24096                   000000018006aa20     c1_FLWSim.obj
 0003:00000b28       $SG24238                   000000018006ab28     c1_FLWSim.obj
 0003:00000b38       $SG24240                   000000018006ab38     c1_FLWSim.obj
 0003:00000b50       $SG24097                   000000018006ab50     c1_FLWSim.obj
 0003:00000c58       $SG24239                   000000018006ac58     c1_FLWSim.obj
 0003:00000c68       $SG24242                   000000018006ac68     c1_FLWSim.obj
 0003:00000c70       $SG24098                   000000018006ac70     c1_FLWSim.obj
 0003:00000d74       $SG24243                   000000018006ad74     c1_FLWSim.obj
 0003:00000d80       $SG24099                   000000018006ad80     c1_FLWSim.obj
 0003:00000e38       $SG24244                   000000018006ae38     c1_FLWSim.obj
 0003:00000e40       $SG24100                   000000018006ae40     c1_FLWSim.obj
 0003:00000ef8       $SG24228                   000000018006aef8     c1_FLWSim.obj
 0003:00000f04       $SG24251                   000000018006af04     c1_FLWSim.obj
 0003:00000f0c       $SG24260                   000000018006af0c     c1_FLWSim.obj
 0003:00000f14       $SG23241                   000000018006af14     c1_FLWSim.obj
 0003:00000f18       $SG24229                   000000018006af18     c1_FLWSim.obj
 0003:00000f24       $SG24252                   000000018006af24     c1_FLWSim.obj
 0003:00000f2c       $SG23242                   000000018006af2c     c1_FLWSim.obj
 0003:00000f30       $SG24241                   000000018006af30     c1_FLWSim.obj
 0003:00000f3c       $SG24245                   000000018006af3c     c1_FLWSim.obj
 0003:00000f44       $SG24256                   000000018006af44     c1_FLWSim.obj
 0003:00000f4c       $SG23243                   000000018006af4c     c1_FLWSim.obj
 0003:00000f50       $SG24246                   000000018006af50     c1_FLWSim.obj
 0003:00000f5c       $SG23244                   000000018006af5c     c1_FLWSim.obj
 0003:00000f60       $SG24247                   000000018006af60     c1_FLWSim.obj
 0003:00000f6c       $SG24248                   000000018006af6c     c1_FLWSim.obj
 0003:00000f74       $SG24249                   000000018006af74     c1_FLWSim.obj
 0003:00000f7c       $SG24250                   000000018006af7c     c1_FLWSim.obj
 0003:00000f84       $SG23245                   000000018006af84     c1_FLWSim.obj
 0003:00000f8c       $SG23251                   000000018006af8c     c1_FLWSim.obj
 0003:00000f90       $SG24253                   000000018006af90     c1_FLWSim.obj
 0003:00000fa4       $SG23246                   000000018006afa4     c1_FLWSim.obj
 0003:00000fac       $SG23252                   000000018006afac     c1_FLWSim.obj
 0003:00000fb0       $SG24254                   000000018006afb0     c1_FLWSim.obj
 0003:00000fc4       $SG24255                   000000018006afc4     c1_FLWSim.obj
 0003:00000fcc       $SG24271                   000000018006afcc     c1_FLWSim.obj
 0003:00000fd4       $SG23247                   000000018006afd4     c1_FLWSim.obj
 0003:00000fdc       $SG23253                   000000018006afdc     c1_FLWSim.obj
 0003:00000fe0       $SG24257                   000000018006afe0     c1_FLWSim.obj
 0003:00000ff4       $SG24258                   000000018006aff4     c1_FLWSim.obj
 0003:00000ffc       $SG24272                   000000018006affc     c1_FLWSim.obj
 0003:00001004       $SG23248                   000000018006b004     c1_FLWSim.obj
 0003:0000100c       $SG23254                   000000018006b00c     c1_FLWSim.obj
 0003:00001010       $SG24259                   000000018006b010     c1_FLWSim.obj
 0003:00001020       c1_debug_family_names      000000018006b020     c1_FLWSim.obj
 0003:000010a8       $SG24261                   000000018006b0a8     c1_FLWSim.obj
 0003:000010b4       $SG24262                   000000018006b0b4     c1_FLWSim.obj
 0003:000010bc       $SG23249                   000000018006b0bc     c1_FLWSim.obj
 0003:000010c4       $SG24400                   000000018006b0c4     c1_FLWSim.obj
 0003:000010c8       $SG23238                   000000018006b0c8     c1_FLWSim.obj
 0003:000010d4       $SG24263                   000000018006b0d4     c1_FLWSim.obj
 0003:000010dc       $SG24276                   000000018006b0dc     c1_FLWSim.obj
 0003:000010e4       $SG23256                   000000018006b0e4     c1_FLWSim.obj
 0003:000010ec       $SG24401                   000000018006b0ec     c1_FLWSim.obj
 0003:000010f0       $SG23239                   000000018006b0f0     c1_FLWSim.obj
 0003:000010fc       $SG24264                   000000018006b0fc     c1_FLWSim.obj
 0003:00001104       $SG24283                   000000018006b104     c1_FLWSim.obj
 0003:0000110c       $SG23261                   000000018006b10c     c1_FLWSim.obj
 0003:00001114       $SG24402                   000000018006b114     c1_FLWSim.obj
 0003:00001118       $SG23240                   000000018006b118     c1_FLWSim.obj
 0003:00001124       $SG24265                   000000018006b124     c1_FLWSim.obj
 0003:0000112c       $SG24284                   000000018006b12c     c1_FLWSim.obj
 0003:00001134       $SG23266                   000000018006b134     c1_FLWSim.obj
 0003:0000113c       $SG24403                   000000018006b13c     c1_FLWSim.obj
 0003:00001140       $SG24266                   000000018006b140     c1_FLWSim.obj
 0003:0000114c       $SG23534                   000000018006b14c     c1_FLWSim.obj
 0003:00001150       $SG24267                   000000018006b150     c1_FLWSim.obj
 0003:0000115c       $SG24268                   000000018006b15c     c1_FLWSim.obj
 0003:00001164       $SG24269                   000000018006b164     c1_FLWSim.obj
 0003:0000116c       $SG24270                   000000018006b16c     c1_FLWSim.obj
 0003:00001174       $SG24288                   000000018006b174     c1_FLWSim.obj
 0003:0000117c       $SG23271                   000000018006b17c     c1_FLWSim.obj
 0003:00001184       $SG23535                   000000018006b184     c1_FLWSim.obj
 0003:00001188       $SG24273                   000000018006b188     c1_FLWSim.obj
 0003:0000119c       $SG24295                   000000018006b19c     c1_FLWSim.obj
 0003:000011a4       $SG24305                   000000018006b1a4     c1_FLWSim.obj
 0003:000011ac       $SG23536                   000000018006b1ac     c1_FLWSim.obj
 0003:000011b0       $SG24274                   000000018006b1b0     c1_FLWSim.obj
 0003:000011c4       $SG24296                   000000018006b1c4     c1_FLWSim.obj
 0003:000011cc       $SG23537                   000000018006b1cc     c1_FLWSim.obj
 0003:000011d0       $SG23250                   000000018006b1d0     c1_FLWSim.obj
 0003:000011d8       $SG24275                   000000018006b1d8     c1_FLWSim.obj
 0003:000011e0       $SG24277                   000000018006b1e0     c1_FLWSim.obj
 0003:000011f4       $SG24278                   000000018006b1f4     c1_FLWSim.obj
 0003:000011fc       $SG24300                   000000018006b1fc     c1_FLWSim.obj
 0003:00001208       c1_b_debug_family_names    000000018006b208     c1_FLWSim.obj
 0003:00001228       $SG24279                   000000018006b228     c1_FLWSim.obj
 0003:00001234       $SG24280                   000000018006b234     c1_FLWSim.obj
 0003:0000123c       $SG24281                   000000018006b23c     c1_FLWSim.obj
 0003:00001248       $SG23257                   000000018006b248     c1_FLWSim.obj
 0003:00001250       $SG24282                   000000018006b250     c1_FLWSim.obj
 0003:00001258       $SG23258                   000000018006b258     c1_FLWSim.obj
 0003:00001260       $SG23259                   000000018006b260     c1_FLWSim.obj
 0003:00001268       c1_c_debug_family_names    000000018006b268     c1_FLWSim.obj
 0003:00001288       $SG24285                   000000018006b288     c1_FLWSim.obj
 0003:000012a0       $SG24286                   000000018006b2a0     c1_FLWSim.obj
 0003:000012b8       $SG23262                   000000018006b2b8     c1_FLWSim.obj
 0003:000012c0       $SG24287                   000000018006b2c0     c1_FLWSim.obj
 0003:000012c8       $SG23263                   000000018006b2c8     c1_FLWSim.obj
 0003:000012d0       $SG23264                   000000018006b2d0     c1_FLWSim.obj
 0003:000012d8       c1_d_debug_family_names    000000018006b2d8     c1_FLWSim.obj
 0003:000012f8       $SG24289                   000000018006b2f8     c1_FLWSim.obj
 0003:0000130c       $SG24290                   000000018006b30c     c1_FLWSim.obj
 0003:00001318       $SG24291                   000000018006b318     c1_FLWSim.obj
 0003:00001328       $SG23267                   000000018006b328     c1_FLWSim.obj
 0003:00001330       $SG24292                   000000018006b330     c1_FLWSim.obj
 0003:00001338       $SG23268                   000000018006b338     c1_FLWSim.obj
 0003:00001340       $SG24293                   000000018006b340     c1_FLWSim.obj
 0003:00001348       $SG23269                   000000018006b348     c1_FLWSim.obj
 0003:00001350       c1_e_debug_family_names    000000018006b350     c1_FLWSim.obj
 0003:00001370       $SG24294                   000000018006b370     c1_FLWSim.obj
 0003:00001378       $SG23272                   000000018006b378     c1_FLWSim.obj
 0003:00001380       $SG24297                   000000018006b380     c1_FLWSim.obj
 0003:00001394       $SG23273                   000000018006b394     c1_FLWSim.obj
 0003:000013a0       $SG24298                   000000018006b3a0     c1_FLWSim.obj
 0003:000013b8       $SG23274                   000000018006b3b8     c1_FLWSim.obj
 0003:000013c0       $SG24299                   000000018006b3c0     c1_FLWSim.obj
 0003:000013c8       $SG24301                   000000018006b3c8     c1_FLWSim.obj
 0003:000013dc       $SG24302                   000000018006b3dc     c1_FLWSim.obj
 0003:000013e8       $SG24303                   000000018006b3e8     c1_FLWSim.obj
 0003:000013f8       $SG24304                   000000018006b3f8     c1_FLWSim.obj
 0003:00001400       $SG24306                   000000018006b400     c1_FLWSim.obj
 0003:00001410       $SG24321                   000000018006b410     c1_FLWSim.obj
 0003:00001420       $SG24322                   000000018006b420     c1_FLWSim.obj
 0003:00001430       $SG24323                   000000018006b430     c1_FLWSim.obj
 0003:00001440       $SG24324                   000000018006b440     c1_FLWSim.obj
 0003:00001450       $SG24325                   000000018006b450     c1_FLWSim.obj
 0003:00001468       $SG24326                   000000018006b468     c1_FLWSim.obj
 0003:00001480       $SG24327                   000000018006b480     c1_FLWSim.obj
 0003:00001498       $SG24328                   000000018006b498     c1_FLWSim.obj
 0003:000014b0       $SG24329                   000000018006b4b0     c1_FLWSim.obj
 0003:000014c8       $SG24330                   000000018006b4c8     c1_FLWSim.obj
 0003:000014dc       $SG24331                   000000018006b4dc     c1_FLWSim.obj
 0003:000014e8       $SG24332                   000000018006b4e8     c1_FLWSim.obj
 0003:00001500       $SG24335                   000000018006b500     c1_FLWSim.obj
 0003:00001510       $SG24348                   000000018006b510     c1_FLWSim.obj
 0003:00001538       $SG24349                   000000018006b538     c1_FLWSim.obj
 0003:00001560       $SG24350                   000000018006b560     c1_FLWSim.obj
 0003:00001580       $SG24351                   000000018006b580     c1_FLWSim.obj
 0003:000015a0       $SG24353                   000000018006b5a0     c1_FLWSim.obj
 0003:000015c8       $SG24354                   000000018006b5c8     c1_FLWSim.obj
 0003:000015e8       $SG24363                   000000018006b5e8     c1_FLWSim.obj
 0003:000015f8       $SG24364                   000000018006b5f8     c1_FLWSim.obj
 0003:00001608       $SG24365                   000000018006b608     c1_FLWSim.obj
 0003:00001610       $SG24366                   000000018006b610     c1_FLWSim.obj
 0003:00001618       $SG24431                   000000018006b618     c1_FLWSim.obj
 0003:00001630       $SG24367                   000000018006b630     c1_FLWSim.obj
 0003:000016b8       $SG24538                   000000018006b6b8     c1_FLWSim.obj
 0003:000016e0       $SG24368                   000000018006b6e0     c1_FLWSim.obj
 0003:00001768       $SG24404                   000000018006b768     c1_FLWSim.obj
 0003:00001778       $SG24405                   000000018006b778     c1_FLWSim.obj
 0003:00001788       $SG24406                   000000018006b788     c1_FLWSim.obj
 0003:00001798       $SG24407                   000000018006b798     c1_FLWSim.obj
 0003:000017a8       $SG24408                   000000018006b7a8     c1_FLWSim.obj
 0003:000017b8       $SG24546                   000000018006b7b8     c1_FLWSim.obj
 0003:000017c8       $SG24547                   000000018006b7c8     c1_FLWSim.obj
 0003:000017e0       $SG24568                   000000018006b7e0     c1_FLWSim.obj
 0003:00001810       $SG24576                   000000018006b810     c2_FLWSim.obj
 0003:00001814       $SG24577                   000000018006b814     c2_FLWSim.obj
 0003:00001818       $SG24578                   000000018006b818     c2_FLWSim.obj
 0003:00001820       $SG24579                   000000018006b820     c2_FLWSim.obj
 0003:00001828       $SG24622                   000000018006b828     c2_FLWSim.obj
 0003:0000182c       $SG23600                   000000018006b82c     c2_FLWSim.obj
 0003:00001830       $SG23601                   000000018006b830     c2_FLWSim.obj
 0003:00001834       $SG23613                   000000018006b834     c2_FLWSim.obj
 0003:00001838       $SG23614                   000000018006b838     c2_FLWSim.obj
 0003:00001850       ?c2_a@?1??sf_gateway_c2_FLWSim@@9@9 000000018006b850     c2_FLWSim.obj
 0003:00001930       ?c2_rfmt@?1??sf_gateway_c2_FLWSim@@9@9 000000018006b930     c2_FLWSim.obj
 0003:00001938       $SG24732                   000000018006b938     c2_FLWSim.obj
 0003:00001944       $SG24734                   000000018006b944     c2_FLWSim.obj
 0003:0000194c       $SG24906                   000000018006b94c     c2_FLWSim.obj
 0003:00001950       $SG24733                   000000018006b950     c2_FLWSim.obj
 0003:0000195c       $SG24735                   000000018006b95c     c2_FLWSim.obj
 0003:00001964       $SG24907                   000000018006b964     c2_FLWSim.obj
 0003:00001968       $SG24736                   000000018006b968     c2_FLWSim.obj
 0003:00001974       $SG24908                   000000018006b974     c2_FLWSim.obj
 0003:00001978       $SG24737                   000000018006b978     c2_FLWSim.obj
 0003:00001984       $SG24909                   000000018006b984     c2_FLWSim.obj
 0003:00001988       $SG24738                   000000018006b988     c2_FLWSim.obj
 0003:00001990       $SG24739                   000000018006b990     c2_FLWSim.obj
 0003:00001998       $SG24740                   000000018006b998     c2_FLWSim.obj
 0003:000019a0       $SG24741                   000000018006b9a0     c2_FLWSim.obj
 0003:000019a8       $SG24742                   000000018006b9a8     c2_FLWSim.obj
 0003:000019b8       $SG24743                   000000018006b9b8     c2_FLWSim.obj
 0003:000019c8       $SG24744                   000000018006b9c8     c2_FLWSim.obj
 0003:000019e0       $SG24745                   000000018006b9e0     c2_FLWSim.obj
 0003:000019ec       $SG24746                   000000018006b9ec     c2_FLWSim.obj
 0003:000019f4       $SG24747                   000000018006b9f4     c2_FLWSim.obj
 0003:000019fc       $SG24748                   000000018006b9fc     c2_FLWSim.obj
 0003:00001a04       $SG24749                   000000018006ba04     c2_FLWSim.obj
 0003:00001a0c       $SG24755                   000000018006ba0c     c2_FLWSim.obj
 0003:00001a14       $SG24788                   000000018006ba14     c2_FLWSim.obj
 0003:00001a1c       $SG23891                   000000018006ba1c     c2_FLWSim.obj
 0003:00001a20       $SG24750                   000000018006ba20     c2_FLWSim.obj
 0003:00001a2c       $SG23892                   000000018006ba2c     c2_FLWSim.obj
 0003:00001a30       $SG24751                   000000018006ba30     c2_FLWSim.obj
 0003:00001a3c       $SG24752                   000000018006ba3c     c2_FLWSim.obj
 0003:00001a44       $SG24753                   000000018006ba44     c2_FLWSim.obj
 0003:00001a4c       $SG24754                   000000018006ba4c     c2_FLWSim.obj
 0003:00001a54       $SG24756                   000000018006ba54     c2_FLWSim.obj
 0003:00001a5c       $SG24809                   000000018006ba5c     c2_FLWSim.obj
 0003:00001a64       $SG23936                   000000018006ba64     c2_FLWSim.obj
 0003:00001a68       $SG24757                   000000018006ba68     c2_FLWSim.obj
 0003:00001a7c       $SG24760                   000000018006ba7c     c2_FLWSim.obj
 0003:00001a84       $SG24004                   000000018006ba84     c2_FLWSim.obj
 0003:00001a88       $SG24758                   000000018006ba88     c2_FLWSim.obj
 0003:00001a9c       $SG24759                   000000018006ba9c     c2_FLWSim.obj
 0003:00001aa4       $SG24767                   000000018006baa4     c2_FLWSim.obj
 0003:00001aac       $SG24024                   000000018006baac     c2_FLWSim.obj
 0003:00001ab0       $SG24761                   000000018006bab0     c2_FLWSim.obj
 0003:00001ac4       $SG24762                   000000018006bac4     c2_FLWSim.obj
 0003:00001acc       $SG24768                   000000018006bacc     c2_FLWSim.obj
 0003:00001ad4       $SG24040                   000000018006bad4     c2_FLWSim.obj
 0003:00001ad8       $SG24763                   000000018006bad8     c2_FLWSim.obj
 0003:00001ae4       $SG24764                   000000018006bae4     c2_FLWSim.obj
 0003:00001aec       $SG24765                   000000018006baec     c2_FLWSim.obj
 0003:00001af4       $SG24766                   000000018006baf4     c2_FLWSim.obj
 0003:00001afc       $SG24772                   000000018006bafc     c2_FLWSim.obj
 0003:00001b04       $SG24087                   000000018006bb04     c2_FLWSim.obj
 0003:00001b08       $SG24769                   000000018006bb08     c2_FLWSim.obj
 0003:00001b1c       $SG24779                   000000018006bb1c     c2_FLWSim.obj
 0003:00001b24       $SG24148                   000000018006bb24     c2_FLWSim.obj
 0003:00001b28       $SG24770                   000000018006bb28     c2_FLWSim.obj
 0003:00001b3c       $SG24771                   000000018006bb3c     c2_FLWSim.obj
 0003:00001b44       $SG24780                   000000018006bb44     c2_FLWSim.obj
 0003:00001b4c       $SG24214                   000000018006bb4c     c2_FLWSim.obj
 0003:00001b50       $SG24773                   000000018006bb50     c2_FLWSim.obj
 0003:00001b64       $SG24774                   000000018006bb64     c2_FLWSim.obj
 0003:00001b6c       $SG24784                   000000018006bb6c     c2_FLWSim.obj
 0003:00001b74       $SG23238                   000000018006bb74     c2_FLWSim.obj
 0003:00001b78       $SG24775                   000000018006bb78     c2_FLWSim.obj
 0003:00001b84       $SG24776                   000000018006bb84     c2_FLWSim.obj
 0003:00001b8c       $SG24777                   000000018006bb8c     c2_FLWSim.obj
 0003:00001b94       $SG24778                   000000018006bb94     c2_FLWSim.obj
 0003:00001b9c       $SG24799                   000000018006bb9c     c2_FLWSim.obj
 0003:00001ba4       $SG23239                   000000018006bba4     c2_FLWSim.obj
 0003:00001ba8       $SG24781                   000000018006bba8     c2_FLWSim.obj
 0003:00001bbc       $SG24800                   000000018006bbbc     c2_FLWSim.obj
 0003:00001bc4       $SG23240                   000000018006bbc4     c2_FLWSim.obj
 0003:00001bc8       $SG24782                   000000018006bbc8     c2_FLWSim.obj
 0003:00001bdc       $SG24783                   000000018006bbdc     c2_FLWSim.obj
 0003:00001be4       $SG24804                   000000018006bbe4     c2_FLWSim.obj
 0003:00001bec       $SG23241                   000000018006bbec     c2_FLWSim.obj
 0003:00001bf0       $SG24785                   000000018006bbf0     c2_FLWSim.obj
 0003:00001c04       $SG24786                   000000018006bc04     c2_FLWSim.obj
 0003:00001c0c       $SG23242                   000000018006bc0c     c2_FLWSim.obj
 0003:00001c10       $SG24787                   000000018006bc10     c2_FLWSim.obj
 0003:00001c1c       $SG23243                   000000018006bc1c     c2_FLWSim.obj
 0003:00001c20       $SG24789                   000000018006bc20     c2_FLWSim.obj
 0003:00001c2c       $SG24790                   000000018006bc2c     c2_FLWSim.obj
 0003:00001c34       $SG24791                   000000018006bc34     c2_FLWSim.obj
 0003:00001c3c       $SG24792                   000000018006bc3c     c2_FLWSim.obj
 0003:00001c44       $SG24793                   000000018006bc44     c2_FLWSim.obj
 0003:00001c4c       $SG23244                   000000018006bc4c     c2_FLWSim.obj
 0003:00001c50       $SG24794                   000000018006bc50     c2_FLWSim.obj
 0003:00001c5c       $SG23245                   000000018006bc5c     c2_FLWSim.obj
 0003:00001c60       $SG24795                   000000018006bc60     c2_FLWSim.obj
 0003:00001c6c       $SG24796                   000000018006bc6c     c2_FLWSim.obj
 0003:00001c74       $SG24797                   000000018006bc74     c2_FLWSim.obj
 0003:00001c7c       $SG24798                   000000018006bc7c     c2_FLWSim.obj
 0003:00001c84       $SG23246                   000000018006bc84     c2_FLWSim.obj
 0003:00001c88       $SG24801                   000000018006bc88     c2_FLWSim.obj
 0003:00001c9c       $SG23247                   000000018006bc9c     c2_FLWSim.obj
 0003:00001ca0       $SG24802                   000000018006bca0     c2_FLWSim.obj
 0003:00001cb4       $SG24803                   000000018006bcb4     c2_FLWSim.obj
 0003:00001cbc       $SG23248                   000000018006bcbc     c2_FLWSim.obj
 0003:00001cc4       $SG23250                   000000018006bcc4     c2_FLWSim.obj
 0003:00001cc8       $SG24805                   000000018006bcc8     c2_FLWSim.obj
 0003:00001cdc       $SG24806                   000000018006bcdc     c2_FLWSim.obj
 0003:00001ce4       $SG23251                   000000018006bce4     c2_FLWSim.obj
 0003:00001ce8       $SG24807                   000000018006bce8     c2_FLWSim.obj
 0003:00001cf4       $SG23252                   000000018006bcf4     c2_FLWSim.obj
 0003:00001cf8       $SG24808                   000000018006bcf8     c2_FLWSim.obj
 0003:00001d00       $SG24810                   000000018006bd00     c2_FLWSim.obj
 0003:00001d10       $SG24825                   000000018006bd10     c2_FLWSim.obj
 0003:00001d20       $SG24826                   000000018006bd20     c2_FLWSim.obj
 0003:00001d30       $SG24827                   000000018006bd30     c2_FLWSim.obj
 0003:00001d40       $SG24828                   000000018006bd40     c2_FLWSim.obj
 0003:00001d50       $SG24829                   000000018006bd50     c2_FLWSim.obj
 0003:00001d64       $SG23253                   000000018006bd64     c2_FLWSim.obj
 0003:00001d68       $SG24830                   000000018006bd68     c2_FLWSim.obj
 0003:00001d7c       $SG24280                   000000018006bd7c     c2_FLWSim.obj
 0003:00001d80       $SG24831                   000000018006bd80     c2_FLWSim.obj
 0003:00001d98       $SG24832                   000000018006bd98     c2_FLWSim.obj
 0003:00001db0       $SG24833                   000000018006bdb0     c2_FLWSim.obj
 0003:00001dc4       $SG24305                   000000018006bdc4     c2_FLWSim.obj
 0003:00001dc8       $SG24834                   000000018006bdc8     c2_FLWSim.obj
 0003:00001ddc       $SG24835                   000000018006bddc     c2_FLWSim.obj
 0003:00001de4       $SG23255                   000000018006bde4     c2_FLWSim.obj
 0003:00001dec       $SG24503                   000000018006bdec     c2_FLWSim.obj
 0003:00001df0       $SG24836                   000000018006bdf0     c2_FLWSim.obj
 0003:00001e04       $SG23260                   000000018006be04     c2_FLWSim.obj
 0003:00001e0c       $SG24504                   000000018006be0c     c2_FLWSim.obj
 0003:00001e10       $SG24839                   000000018006be10     c2_FLWSim.obj
 0003:00001e24       $SG23266                   000000018006be24     c2_FLWSim.obj
 0003:00001e2c       $SG24545                   000000018006be2c     c2_FLWSim.obj
 0003:00001e30       $SG24852                   000000018006be30     c2_FLWSim.obj
 0003:00001e54       $SG23271                   000000018006be54     c2_FLWSim.obj
 0003:00001e5c       $SG24546                   000000018006be5c     c2_FLWSim.obj
 0003:00001e60       $SG24853                   000000018006be60     c2_FLWSim.obj
 0003:00001e84       $SG23276                   000000018006be84     c2_FLWSim.obj
 0003:00001e8c       $SG24547                   000000018006be8c     c2_FLWSim.obj
 0003:00001e90       $SG24854                   000000018006be90     c2_FLWSim.obj
 0003:00001eac       ?c2_cv2@?1??c2_warning@@9@9 000000018006beac     c2_FLWSim.obj
 0003:00001eb4       $SG24574                   000000018006beb4     c2_FLWSim.obj
 0003:00001eb8       $SG24855                   000000018006beb8     c2_FLWSim.obj
 0003:00001ed4       ?c2_cv3@?1??c2_warning@@9@9 000000018006bed4     c2_FLWSim.obj
 0003:00001edc       $SG24575                   000000018006bedc     c2_FLWSim.obj
 0003:00001ee0       $SG24857                   000000018006bee0     c2_FLWSim.obj
 0003:00001f04       $SG24506                   000000018006bf04     c2_FLWSim.obj
 0003:00001f0c       ?c2_cv4@?1??c2_b_warning@@9@9 000000018006bf0c     c2_FLWSim.obj
 0003:00001f18       $SG24858                   000000018006bf18     c2_FLWSim.obj
 0003:00001f38       $SG24867                   000000018006bf38     c2_FLWSim.obj
 0003:00001f48       $SG24868                   000000018006bf48     c2_FLWSim.obj
 0003:00001f58       $SG24869                   000000018006bf58     c2_FLWSim.obj
 0003:00001f60       $SG24870                   000000018006bf60     c2_FLWSim.obj
 0003:00001f68       $SG23893                   000000018006bf68     c2_FLWSim.obj
 0003:00001f70       $SG24871                   000000018006bf70     c2_FLWSim.obj
 0003:00001fd0       $SG24872                   000000018006bfd0     c2_FLWSim.obj
 0003:00002030       $SG24910                   000000018006c030     c2_FLWSim.obj
 0003:00002040       $SG24911                   000000018006c040     c2_FLWSim.obj
 0003:00002050       $SG24912                   000000018006c050     c2_FLWSim.obj
 0003:00002060       $SG24913                   000000018006c060     c2_FLWSim.obj
 0003:00002070       $SG24914                   000000018006c070     c2_FLWSim.obj
 0003:00002080       $SG24915                   000000018006c080     c2_FLWSim.obj
 0003:00002090       $SG23894                   000000018006c090     c2_FLWSim.obj
 0003:00002098       $SG24938                   000000018006c098     c2_FLWSim.obj
 0003:000020b0       $SG23912                   000000018006c0b0     c2_FLWSim.obj
 0003:00002128       $SG25045                   000000018006c128     c2_FLWSim.obj
 0003:00002150       $SG23913                   000000018006c150     c2_FLWSim.obj
 0003:000021c8       $SG25053                   000000018006c1c8     c2_FLWSim.obj
 0003:000021d8       $SG25054                   000000018006c1d8     c2_FLWSim.obj
 0003:000021f0       $SG23914                   000000018006c1f0     c2_FLWSim.obj
 0003:00002268       $SG25075                   000000018006c268     c2_FLWSim.obj
 0003:00002298       $SG23249                   000000018006c298     c2_FLWSim.obj
 0003:000022a0       $SG23915                   000000018006c2a0     c2_FLWSim.obj
 0003:00002310       $SG23916                   000000018006c310     c2_FLWSim.obj
 0003:00002380       $SG25090                   000000018006c380     c2_FLWSim.obj
 0003:000023e0       c2_debug_family_names      000000018006c3e0     c2_FLWSim.obj
 0003:00002460       c2_b_debug_family_names    000000018006c460     c2_FLWSim.obj
 0003:00002480       $SG23256                   000000018006c480     c2_FLWSim.obj
 0003:00002488       $SG23257                   000000018006c488     c2_FLWSim.obj
 0003:00002490       $SG23258                   000000018006c490     c2_FLWSim.obj
 0003:00002498       c2_c_debug_family_names    000000018006c498     c2_FLWSim.obj
 0003:000024c0       $SG23261                   000000018006c4c0     c2_FLWSim.obj
 0003:000024c8       $SG23262                   000000018006c4c8     c2_FLWSim.obj
 0003:000024d0       $SG23263                   000000018006c4d0     c2_FLWSim.obj
 0003:000024d8       $SG23264                   000000018006c4d8     c2_FLWSim.obj
 0003:000024e0       c2_d_debug_family_names    000000018006c4e0     c2_FLWSim.obj
 0003:00002500       $SG23267                   000000018006c500     c2_FLWSim.obj
 0003:00002508       $SG23268                   000000018006c508     c2_FLWSim.obj
 0003:00002510       $SG23269                   000000018006c510     c2_FLWSim.obj
 0003:00002518       c2_e_debug_family_names    000000018006c518     c2_FLWSim.obj
 0003:00002538       $SG23272                   000000018006c538     c2_FLWSim.obj
 0003:00002540       $SG23273                   000000018006c540     c2_FLWSim.obj
 0003:00002548       $SG23274                   000000018006c548     c2_FLWSim.obj
 0003:00002550       c2_f_debug_family_names    000000018006c550     c2_FLWSim.obj
 0003:00002570       $SG23277                   000000018006c570     c2_FLWSim.obj
 0003:00002578       $SG23278                   000000018006c578     c2_FLWSim.obj
 0003:00002580       $SG23279                   000000018006c580     c2_FLWSim.obj
 0003:00002588       ?c2_cv0@?1??c2_check_forloop_overflow_error@@9@9 000000018006c588     c2_FLWSim.obj
 0003:000025b0       $SG24353                   000000018006c5b0     c2_FLWSim.obj
 0003:000026b4       ?c2_cv1@?1??c2_check_forloop_overflow_error@@9@9 000000018006c6b4     c2_FLWSim.obj
 0003:000026c0       $SG24354                   000000018006c6c0     c2_FLWSim.obj
 0003:000027c8       $SG24505                   000000018006c7c8     c2_FLWSim.obj
 0003:000027d0       $SG24355                   000000018006c7d0     c2_FLWSim.obj
 0003:000028d8       ?c2_msgID@?1??c2_warning@@9@9 000000018006c8d8     c2_FLWSim.obj
 0003:000028f4       $SG24548                   000000018006c8f4     c2_FLWSim.obj
 0003:00002900       $SG24356                   000000018006c900     c2_FLWSim.obj
 0003:00002a04       $SG24549                   000000018006ca04     c2_FLWSim.obj
 0003:00002a10       $SG24357                   000000018006ca10     c2_FLWSim.obj
 0003:00002b14       ?c2_cv5@?1??c2_b_warning@@9@9 000000018006cb14     c2_FLWSim.obj
 0003:00002b20       $SG24358                   000000018006cb20     c2_FLWSim.obj
 0003:00002c28       ?c2_msgID@?1??c2_b_warning@@9@9 000000018006cc28     c2_FLWSim.obj
 0003:00002c50       $SG24359                   000000018006cc50     c2_FLWSim.obj
 0003:00002d60       $SG24360                   000000018006cd60     c2_FLWSim.obj
 0003:00002e70       $SG24361                   000000018006ce70     c2_FLWSim.obj
 0003:00002f80       $SG24362                   000000018006cf80     c2_FLWSim.obj
 0003:00003090       $SG24363                   000000018006d090     c2_FLWSim.obj
 0003:000030f0       $SG24364                   000000018006d0f0     c2_FLWSim.obj
 0003:00003150       $SG25609                   000000018006d150     c3_FLWSim.obj
 0003:00003154       $SG25610                   000000018006d154     c3_FLWSim.obj
 0003:00003158       $SG25611                   000000018006d158     c3_FLWSim.obj
 0003:00003160       $SG25612                   000000018006d160     c3_FLWSim.obj
 0003:00003168       ?c3_cv1@?1??c3_check_forloop_overflow_error@@9@9 000000018006d168     c3_FLWSim.obj
 0003:0000318c       ?c3_cv2@?1??c3_check_forloop_overflow_error@@9@9 000000018006d18c     c3_FLWSim.obj
 0003:00003194       $SG25745                   000000018006d194     c3_FLWSim.obj
 0003:00003198       $SG25746                   000000018006d198     c3_FLWSim.obj
 0003:0000319c       ?c3_cv3@?1??c3_warning@@9@9 000000018006d19c     c3_FLWSim.obj
 0003:000031a4       $SG25787                   000000018006d1a4     c3_FLWSim.obj
 0003:000031a8       $SG25747                   000000018006d1a8     c3_FLWSim.obj
 0003:000031b0       $SG25748                   000000018006d1b0     c3_FLWSim.obj
 0003:000031b8       ?c3_cv4@?1??c3_warning@@9@9 000000018006d1b8     c3_FLWSim.obj
 0003:000031c0       ?c3_msgID@?1??c3_warning@@9@9 000000018006d1c0     c3_FLWSim.obj
 0003:000031dc       $SG25788                   000000018006d1dc     c3_FLWSim.obj
 0003:000031e0       $SG25789                   000000018006d1e0     c3_FLWSim.obj
 0003:000031e4       $SG25790                   000000018006d1e4     c3_FLWSim.obj
 0003:000031ec       $SG25791                   000000018006d1ec     c3_FLWSim.obj
 0003:000031f4       ?c3_cv5@?1??c3_b_warning@@9@9 000000018006d1f4     c3_FLWSim.obj
 0003:000031fc       ?c3_cv6@?1??c3_b_warning@@9@9 000000018006d1fc     c3_FLWSim.obj
 0003:00003208       ?c3_msgID@?1??c3_b_warning@@9@9 000000018006d208     c3_FLWSim.obj
 0003:00003230       $SG24780                   000000018006d230     c3_FLWSim.obj
 0003:000032a0       $SG24781                   000000018006d2a0     c3_FLWSim.obj
 0003:00003310       $SG24782                   000000018006d310     c3_FLWSim.obj
 0003:00003380       $SG24783                   000000018006d380     c3_FLWSim.obj
 0003:000033f0       $SG24784                   000000018006d3f0     c3_FLWSim.obj
 0003:00003460       $SG24785                   000000018006d460     c3_FLWSim.obj
 0003:000034d4       $SG25816                   000000018006d4d4     c3_FLWSim.obj
 0003:000034d8       $SG25820                   000000018006d4d8     c3_FLWSim.obj
 0003:000034e0       $SG24786                   000000018006d4e0     c3_FLWSim.obj
 0003:00003554       $SG25817                   000000018006d554     c3_FLWSim.obj
 0003:00003558       $SG25821                   000000018006d558     c3_FLWSim.obj
 0003:00003560       $SG24787                   000000018006d560     c3_FLWSim.obj
 0003:000035d4       $SG25818                   000000018006d5d4     c3_FLWSim.obj
 0003:000035d8       ?c3_rfmt@?1??c3_b_mpower@@9@9 000000018006d5d8     c3_FLWSim.obj
 0003:000035e0       $SG24788                   000000018006d5e0     c3_FLWSim.obj
 0003:00003654       $SG25819                   000000018006d654     c3_FLWSim.obj
 0003:00003658       $SG24808                   000000018006d658     c3_FLWSim.obj
 0003:0000365c       $SG25862                   000000018006d65c     c3_FLWSim.obj
 0003:00003660       $SG25863                   000000018006d660     c3_FLWSim.obj
 0003:00003664       $SG24876                   000000018006d664     c3_FLWSim.obj
 0003:00003668       $SG25864                   000000018006d668     c3_FLWSim.obj
 0003:00003670       $SG25865                   000000018006d670     c3_FLWSim.obj
 0003:00003678       $SG23867                   000000018006d678     c3_FLWSim.obj
 0003:0000367c       $SG24892                   000000018006d67c     c3_FLWSim.obj
 0003:00003680       $SG23868                   000000018006d680     c3_FLWSim.obj
 0003:00003684       $SG23880                   000000018006d684     c3_FLWSim.obj
 0003:00003688       $SG23881                   000000018006d688     c3_FLWSim.obj
 0003:0000369c       $SG24912                   000000018006d69c     c3_FLWSim.obj
 0003:000036a0       $SG24964                   000000018006d6a0     c3_FLWSim.obj
 0003:000036a4       $SG24989                   000000018006d6a4     c3_FLWSim.obj
 0003:000036a8       ?c3_dv1@?1??c3_chartstep_c3_FLWSim@@9@9 000000018006d6a8     c3_FLWSim.obj
 0003:000036c8       $SG25009                   000000018006d6c8     c3_FLWSim.obj
 0003:000036cc       $SG26045                   000000018006d6cc     c3_FLWSim.obj
 0003:000036d0       ?c3_dv13@?1??c3_chartstep_c3_FLWSim@@9@9 000000018006d6d0     c3_FLWSim.obj
 0003:000037b0       $SG25070                   000000018006d7b0     c3_FLWSim.obj
 0003:000037b4       $SG26156                   000000018006d7b4     c3_FLWSim.obj
 0003:000037bc       $SG25136                   000000018006d7bc     c3_FLWSim.obj
 0003:000037c0       ?c3_iv0@?1??c3_chartstep_c3_FLWSim@@9@9 000000018006d7c0     c3_FLWSim.obj
 0003:000037d0       $SG26154                   000000018006d7d0     c3_FLWSim.obj
 0003:000037dc       $SG26157                   000000018006d7dc     c3_FLWSim.obj
 0003:000037e4       $SG25202                   000000018006d7e4     c3_FLWSim.obj
 0003:000037e8       $SG26155                   000000018006d7e8     c3_FLWSim.obj
 0003:000037f4       $SG26162                   000000018006d7f4     c3_FLWSim.obj
 0003:000037fc       $SG26258                   000000018006d7fc     c3_FLWSim.obj
 0003:00003800       $SG26158                   000000018006d800     c3_FLWSim.obj
 0003:0000380c       $SG25263                   000000018006d80c     c3_FLWSim.obj
 0003:00003810       $SG26159                   000000018006d810     c3_FLWSim.obj
 0003:0000381c       $SG23238                   000000018006d81c     c3_FLWSim.obj
 0003:00003820       $SG26160                   000000018006d820     c3_FLWSim.obj
 0003:00003828       $SG26161                   000000018006d828     c3_FLWSim.obj
 0003:00003830       $SG26163                   000000018006d830     c3_FLWSim.obj
 0003:00003838       $SG26164                   000000018006d838     c3_FLWSim.obj
 0003:00003848       $SG26165                   000000018006d848     c3_FLWSim.obj
 0003:00003858       $SG26166                   000000018006d858     c3_FLWSim.obj
 0003:00003870       $SG26167                   000000018006d870     c3_FLWSim.obj
 0003:0000387c       $SG26168                   000000018006d87c     c3_FLWSim.obj
 0003:00003884       $SG26169                   000000018006d884     c3_FLWSim.obj
 0003:0000388c       $SG26170                   000000018006d88c     c3_FLWSim.obj
 0003:00003894       $SG26171                   000000018006d894     c3_FLWSim.obj
 0003:0000389c       $SG26177                   000000018006d89c     c3_FLWSim.obj
 0003:000038a4       $SG26210                   000000018006d8a4     c3_FLWSim.obj
 0003:000038ac       $SG23239                   000000018006d8ac     c3_FLWSim.obj
 0003:000038b0       $SG26172                   000000018006d8b0     c3_FLWSim.obj
 0003:000038bc       $SG23240                   000000018006d8bc     c3_FLWSim.obj
 0003:000038c0       $SG26173                   000000018006d8c0     c3_FLWSim.obj
 0003:000038cc       $SG26174                   000000018006d8cc     c3_FLWSim.obj
 0003:000038d4       $SG26175                   000000018006d8d4     c3_FLWSim.obj
 0003:000038dc       $SG26176                   000000018006d8dc     c3_FLWSim.obj
 0003:000038e4       $SG26178                   000000018006d8e4     c3_FLWSim.obj
 0003:000038ec       $SG26231                   000000018006d8ec     c3_FLWSim.obj
 0003:000038f4       $SG23241                   000000018006d8f4     c3_FLWSim.obj
 0003:000038f8       $SG26179                   000000018006d8f8     c3_FLWSim.obj
 0003:0000390c       $SG26182                   000000018006d90c     c3_FLWSim.obj
 0003:00003914       $SG23242                   000000018006d914     c3_FLWSim.obj
 0003:00003918       $SG26180                   000000018006d918     c3_FLWSim.obj
 0003:0000392c       $SG26181                   000000018006d92c     c3_FLWSim.obj
 0003:00003934       $SG26189                   000000018006d934     c3_FLWSim.obj
 0003:0000393c       $SG23243                   000000018006d93c     c3_FLWSim.obj
 0003:00003940       $SG26183                   000000018006d940     c3_FLWSim.obj
 0003:00003954       $SG26184                   000000018006d954     c3_FLWSim.obj
 0003:0000395c       $SG26190                   000000018006d95c     c3_FLWSim.obj
 0003:00003964       $SG23244                   000000018006d964     c3_FLWSim.obj
 0003:00003968       $SG26185                   000000018006d968     c3_FLWSim.obj
 0003:00003974       $SG26186                   000000018006d974     c3_FLWSim.obj
 0003:0000397c       $SG26187                   000000018006d97c     c3_FLWSim.obj
 0003:00003984       $SG26188                   000000018006d984     c3_FLWSim.obj
 0003:0000398c       $SG26194                   000000018006d98c     c3_FLWSim.obj
 0003:00003994       $SG23246                   000000018006d994     c3_FLWSim.obj
 0003:00003998       $SG26191                   000000018006d998     c3_FLWSim.obj
 0003:000039ac       $SG26201                   000000018006d9ac     c3_FLWSim.obj
 0003:000039b4       $SG23247                   000000018006d9b4     c3_FLWSim.obj
 0003:000039b8       $SG26192                   000000018006d9b8     c3_FLWSim.obj
 0003:000039cc       $SG26193                   000000018006d9cc     c3_FLWSim.obj
 0003:000039d4       $SG26202                   000000018006d9d4     c3_FLWSim.obj
 0003:000039dc       $SG23253                   000000018006d9dc     c3_FLWSim.obj
 0003:000039e4       $SG26329                   000000018006d9e4     c3_FLWSim.obj
 0003:000039e8       $SG26195                   000000018006d9e8     c3_FLWSim.obj
 0003:000039fc       $SG26196                   000000018006d9fc     c3_FLWSim.obj
 0003:00003a04       $SG26206                   000000018006da04     c3_FLWSim.obj
 0003:00003a0c       $SG23254                   000000018006da0c     c3_FLWSim.obj
 0003:00003a14       $SG26330                   000000018006da14     c3_FLWSim.obj
 0003:00003a18       $SG26197                   000000018006da18     c3_FLWSim.obj
 0003:00003a24       $SG26198                   000000018006da24     c3_FLWSim.obj
 0003:00003a2c       $SG26199                   000000018006da2c     c3_FLWSim.obj
 0003:00003a34       $SG26200                   000000018006da34     c3_FLWSim.obj
 0003:00003a40       ?c3_b_b@?1??c3_chartstep_c3_FLWSim@@9@9 000000018006da40     c3_FLWSim.obj
 0003:00003b60       $SG26203                   000000018006db60     c3_FLWSim.obj
 0003:00003b78       $SG26204                   000000018006db78     c3_FLWSim.obj
 0003:00003b90       ?c3_c_b@?1??c3_chartstep_c3_FLWSim@@9@9 000000018006db90     c3_FLWSim.obj
 0003:00003d88       $SG26205                   000000018006dd88     c3_FLWSim.obj
 0003:00003d90       $SG26207                   000000018006dd90     c3_FLWSim.obj
 0003:00003da4       $SG26208                   000000018006dda4     c3_FLWSim.obj
 0003:00003dac       $SG26221                   000000018006ddac     c3_FLWSim.obj
 0003:00003db4       $SG23258                   000000018006ddb4     c3_FLWSim.obj
 0003:00003dbc       $SG26331                   000000018006ddbc     c3_FLWSim.obj
 0003:00003dc0       $SG26209                   000000018006ddc0     c3_FLWSim.obj
 0003:00003dcc       $SG26332                   000000018006ddcc     c3_FLWSim.obj
 0003:00003dd0       $SG26211                   000000018006ddd0     c3_FLWSim.obj
 0003:00003ddc       $SG26212                   000000018006dddc     c3_FLWSim.obj
 0003:00003de4       $SG26213                   000000018006dde4     c3_FLWSim.obj
 0003:00003dec       $SG26214                   000000018006ddec     c3_FLWSim.obj
 0003:00003df4       $SG26215                   000000018006ddf4     c3_FLWSim.obj
 0003:00003dfc       $SG26222                   000000018006ddfc     c3_FLWSim.obj
 0003:00003e04       $SG23259                   000000018006de04     c3_FLWSim.obj
 0003:00003e0c       $SG23262                   000000018006de0c     c3_FLWSim.obj
 0003:00003e10       $SG26216                   000000018006de10     c3_FLWSim.obj
 0003:00003e1c       $SG23263                   000000018006de1c     c3_FLWSim.obj
 0003:00003e20       $SG26217                   000000018006de20     c3_FLWSim.obj
 0003:00003e2c       $SG26218                   000000018006de2c     c3_FLWSim.obj
 0003:00003e34       $SG26219                   000000018006de34     c3_FLWSim.obj
 0003:00003e3c       $SG26220                   000000018006de3c     c3_FLWSim.obj
 0003:00003e44       $SG26226                   000000018006de44     c3_FLWSim.obj
 0003:00003e4c       $SG23264                   000000018006de4c     c3_FLWSim.obj
 0003:00003e50       $SG26223                   000000018006de50     c3_FLWSim.obj
 0003:00003e64       $SG23251                   000000018006de64     c3_FLWSim.obj
 0003:00003e6c       $SG23265                   000000018006de6c     c3_FLWSim.obj
 0003:00003e70       $SG26224                   000000018006de70     c3_FLWSim.obj
 0003:00003e84       $SG26225                   000000018006de84     c3_FLWSim.obj
 0003:00003e8c       $SG23252                   000000018006de8c     c3_FLWSim.obj
 0003:00003e94       $SG23266                   000000018006de94     c3_FLWSim.obj
 0003:00003e98       $SG26227                   000000018006de98     c3_FLWSim.obj
 0003:00003eac       $SG26228                   000000018006deac     c3_FLWSim.obj
 0003:00003eb4       $SG23256                   000000018006deb4     c3_FLWSim.obj
 0003:00003ebc       $SG23267                   000000018006debc     c3_FLWSim.obj
 0003:00003ec0       $SG26229                   000000018006dec0     c3_FLWSim.obj
 0003:00003ecc       $SG23268                   000000018006decc     c3_FLWSim.obj
 0003:00003ed0       $SG26230                   000000018006ded0     c3_FLWSim.obj
 0003:00003ed8       $SG26232                   000000018006ded8     c3_FLWSim.obj
 0003:00003ee8       $SG26237                   000000018006dee8     c3_FLWSim.obj
 0003:00003f04       $SG23269                   000000018006df04     c3_FLWSim.obj
 0003:00003f08       $SG26248                   000000018006df08     c3_FLWSim.obj
 0003:00003f18       $SG26249                   000000018006df18     c3_FLWSim.obj
 0003:00003f28       $SG26250                   000000018006df28     c3_FLWSim.obj
 0003:00003f38       $SG26251                   000000018006df38     c3_FLWSim.obj
 0003:00003f48       $SG26252                   000000018006df48     c3_FLWSim.obj
 0003:00003f5c       $SG23270                   000000018006df5c     c3_FLWSim.obj
 0003:00003f60       $SG26253                   000000018006df60     c3_FLWSim.obj
 0003:00003f74       $SG23271                   000000018006df74     c3_FLWSim.obj
 0003:00003f78       $SG26254                   000000018006df78     c3_FLWSim.obj
 0003:00003f90       $SG26255                   000000018006df90     c3_FLWSim.obj
 0003:00003fa8       $SG26256                   000000018006dfa8     c3_FLWSim.obj
 0003:00003fbc       $SG23272                   000000018006dfbc     c3_FLWSim.obj
 0003:00003fc0       $SG26257                   000000018006dfc0     c3_FLWSim.obj
 0003:00003fd4       $SG23273                   000000018006dfd4     c3_FLWSim.obj
 0003:00003fd8       $SG26259                   000000018006dfd8     c3_FLWSim.obj
 0003:00003fe8       $SG26260                   000000018006dfe8     c3_FLWSim.obj
 0003:00003ff0       $SG26261                   000000018006dff0     c3_FLWSim.obj
 0003:00004004       $SG23274                   000000018006e004     c3_FLWSim.obj
 0003:00004008       $SG26262                   000000018006e008     c3_FLWSim.obj
 0003:00004018       $SG26275                   000000018006e018     c3_FLWSim.obj
 0003:0000403c       $SG23257                   000000018006e03c     c3_FLWSim.obj
 0003:00004044       $SG23275                   000000018006e044     c3_FLWSim.obj
 0003:00004048       $SG26276                   000000018006e048     c3_FLWSim.obj
 0003:0000406c       $SG25324                   000000018006e06c     c3_FLWSim.obj
 0003:00004070       $SG26277                   000000018006e070     c3_FLWSim.obj
 0003:0000408c       $SG23276                   000000018006e08c     c3_FLWSim.obj
 0003:00004090       $SG26278                   000000018006e090     c3_FLWSim.obj
 0003:000040ac       $SG23277                   000000018006e0ac     c3_FLWSim.obj
 0003:000040b0       $SG26280                   000000018006e0b0     c3_FLWSim.obj
 0003:000040d4       $SG23278                   000000018006e0d4     c3_FLWSim.obj
 0003:000040d8       $SG26281                   000000018006e0d8     c3_FLWSim.obj
 0003:000040f4       $SG23279                   000000018006e0f4     c3_FLWSim.obj
 0003:000040f8       $SG26290                   000000018006e0f8     c3_FLWSim.obj
 0003:00004108       $SG26291                   000000018006e108     c3_FLWSim.obj
 0003:00004118       $SG26292                   000000018006e118     c3_FLWSim.obj
 0003:00004120       $SG26293                   000000018006e120     c3_FLWSim.obj
 0003:00004128       $SG23248                   000000018006e128     c3_FLWSim.obj
 0003:00004130       $SG26294                   000000018006e130     c3_FLWSim.obj
 0003:00004190       $SG26295                   000000018006e190     c3_FLWSim.obj
 0003:000041f0       c3_debug_family_names      000000018006e1f0     c3_FLWSim.obj
 0003:00004370       $SG23245                   000000018006e370     c3_FLWSim.obj
 0003:0000437c       $SG23249                   000000018006e37c     c3_FLWSim.obj
 0003:00004384       $SG23250                   000000018006e384     c3_FLWSim.obj
 0003:0000438c       $SG23280                   000000018006e38c     c3_FLWSim.obj
 0003:00004394       $SG23282                   000000018006e394     c3_FLWSim.obj
 0003:00004398       $SG23255                   000000018006e398     c3_FLWSim.obj
 0003:000043a4       $SG23283                   000000018006e3a4     c3_FLWSim.obj
 0003:000043a8       $SG23260                   000000018006e3a8     c3_FLWSim.obj
 0003:000043b0       $SG26333                   000000018006e3b0     c3_FLWSim.obj
 0003:000043c0       $SG23261                   000000018006e3c0     c3_FLWSim.obj
 0003:000043c8       $SG26334                   000000018006e3c8     c3_FLWSim.obj
 0003:000043d4       $SG23284                   000000018006e3d4     c3_FLWSim.obj
 0003:000043d8       $SG26335                   000000018006e3d8     c3_FLWSim.obj
 0003:000043e4       $SG23285                   000000018006e3e4     c3_FLWSim.obj
 0003:000043e8       $SG26336                   000000018006e3e8     c3_FLWSim.obj
 0003:000043f4       $SG25349                   000000018006e3f4     c3_FLWSim.obj
 0003:000043f8       $SG26337                   000000018006e3f8     c3_FLWSim.obj
 0003:00004404       $SG25415                   000000018006e404     c3_FLWSim.obj
 0003:00004408       $SG26338                   000000018006e408     c3_FLWSim.obj
 0003:00004414       $SG25476                   000000018006e414     c3_FLWSim.obj
 0003:00004418       $SG26339                   000000018006e418     c3_FLWSim.obj
 0003:00004428       $SG26340                   000000018006e428     c3_FLWSim.obj
 0003:00004438       $SG26341                   000000018006e438     c3_FLWSim.obj
 0003:00004448       $SG26342                   000000018006e448     c3_FLWSim.obj
 0003:00004458       $SG23281                   000000018006e458     c3_FLWSim.obj
 0003:00004460       c3_b_debug_family_names    000000018006e460     c3_FLWSim.obj
 0003:00004480       $SG23287                   000000018006e480     c3_FLWSim.obj
 0003:00004488       $SG23288                   000000018006e488     c3_FLWSim.obj
 0003:00004490       $SG23289                   000000018006e490     c3_FLWSim.obj
 0003:00004498       $SG23290                   000000018006e498     c3_FLWSim.obj
 0003:000044a0       c3_c_debug_family_names    000000018006e4a0     c3_FLWSim.obj
 0003:000044c0       $SG23292                   000000018006e4c0     c3_FLWSim.obj
 0003:000044c8       $SG26365                   000000018006e4c8     c3_FLWSim.obj
 0003:000044e0       $SG23293                   000000018006e4e0     c3_FLWSim.obj
 0003:000044e8       $SG23294                   000000018006e4e8     c3_FLWSim.obj
 0003:000044f0       $SG23295                   000000018006e4f0     c3_FLWSim.obj
 0003:000044f8       c3_d_debug_family_names    000000018006e4f8     c3_FLWSim.obj
 0003:00004518       $SG23297                   000000018006e518     c3_FLWSim.obj
 0003:00004520       $SG23298                   000000018006e520     c3_FLWSim.obj
 0003:00004528       $SG23299                   000000018006e528     c3_FLWSim.obj
 0003:00004530       $SG23300                   000000018006e530     c3_FLWSim.obj
 0003:00004538       c3_e_debug_family_names    000000018006e538     c3_FLWSim.obj
 0003:00004558       $SG23302                   000000018006e558     c3_FLWSim.obj
 0003:00004560       $SG23303                   000000018006e560     c3_FLWSim.obj
 0003:00004568       $SG23304                   000000018006e568     c3_FLWSim.obj
 0003:00004570       $SG23305                   000000018006e570     c3_FLWSim.obj
 0003:00004578       c3_f_debug_family_names    000000018006e578     c3_FLWSim.obj
 0003:000045a0       $SG23307                   000000018006e5a0     c3_FLWSim.obj
 0003:000045a8       $SG23308                   000000018006e5a8     c3_FLWSim.obj
 0003:000045b0       $SG23309                   000000018006e5b0     c3_FLWSim.obj
 0003:000045b8       $SG23310                   000000018006e5b8     c3_FLWSim.obj
 0003:000045c0       $SG23311                   000000018006e5c0     c3_FLWSim.obj
 0003:000045c8       c3_g_debug_family_names    000000018006e5c8     c3_FLWSim.obj
 0003:000045f0       $SG23313                   000000018006e5f0     c3_FLWSim.obj
 0003:000045f8       $SG23314                   000000018006e5f8     c3_FLWSim.obj
 0003:00004600       $SG23315                   000000018006e600     c3_FLWSim.obj
 0003:00004608       $SG23316                   000000018006e608     c3_FLWSim.obj
 0003:00004610       $SG23317                   000000018006e610     c3_FLWSim.obj
 0003:00004618       c3_h_debug_family_names    000000018006e618     c3_FLWSim.obj
 0003:00004638       $SG23319                   000000018006e638     c3_FLWSim.obj
 0003:00004640       $SG23320                   000000018006e640     c3_FLWSim.obj
 0003:00004648       $SG23321                   000000018006e648     c3_FLWSim.obj
 0003:00004650       $SG23322                   000000018006e650     c3_FLWSim.obj
 0003:00004658       c3_i_debug_family_names    000000018006e658     c3_FLWSim.obj
 0003:00004680       $SG23324                   000000018006e680     c3_FLWSim.obj
 0003:00004688       $SG23325                   000000018006e688     c3_FLWSim.obj
 0003:00004690       $SG23326                   000000018006e690     c3_FLWSim.obj
 0003:00004698       $SG23327                   000000018006e698     c3_FLWSim.obj
 0003:000046a0       $SG23328                   000000018006e6a0     c3_FLWSim.obj
 0003:000046a8       c3_j_debug_family_names    000000018006e6a8     c3_FLWSim.obj
 0003:000046c8       $SG23330                   000000018006e6c8     c3_FLWSim.obj
 0003:000046d0       $SG23331                   000000018006e6d0     c3_FLWSim.obj
 0003:000046d8       $SG23332                   000000018006e6d8     c3_FLWSim.obj
 0003:000046e0       $SG23333                   000000018006e6e0     c3_FLWSim.obj
 0003:000046e8       $SG26472                   000000018006e6e8     c3_FLWSim.obj
 0003:0000470c       $SG25566                   000000018006e70c     c3_FLWSim.obj
 0003:00004710       $SG26480                   000000018006e710     c3_FLWSim.obj
 0003:00004720       $SG26481                   000000018006e720     c3_FLWSim.obj
 0003:00004738       $SG26502                   000000018006e738     c3_FLWSim.obj
 0003:00004768       ?c3_cv0@?1??c3_error@@9@9  000000018006e768     c3_FLWSim.obj
 0003:00004780       $SG26517                   000000018006e780     c3_FLWSim.obj
 0003:000047e0       $SG25519                   000000018006e7e0     c3_FLWSim.obj
 0003:000048e8       $SG25567                   000000018006e8e8     c3_FLWSim.obj
 0003:000048f0       $SG25520                   000000018006e8f0     c3_FLWSim.obj
 0003:000049f4       $SG25568                   000000018006e9f4     c3_FLWSim.obj
 0003:00004a00       $SG25521                   000000018006ea00     c3_FLWSim.obj
 0003:00004b04       ?c3_rfmt@?1??c3_mpower@@9@9 000000018006eb04     c3_FLWSim.obj
 0003:00004b10       $SG25522                   000000018006eb10     c3_FLWSim.obj
 0003:00004c20       $SG25523                   000000018006ec20     c3_FLWSim.obj
 0003:00004d30       $SG25524                   000000018006ed30     c3_FLWSim.obj
 0003:00004e40       $SG25525                   000000018006ee40     c3_FLWSim.obj
 0003:00004f50       $SG25526                   000000018006ef50     c3_FLWSim.obj
 0003:00005060       $SG25527                   000000018006f060     c3_FLWSim.obj
 0003:00005170       $SG25528                   000000018006f170     c3_FLWSim.obj
 0003:00005280       $SG25529                   000000018006f280     c3_FLWSim.obj
 0003:00005390       $SG25530                   000000018006f390     c3_FLWSim.obj
 0003:000054a0       $SG25531                   000000018006f4a0     c3_FLWSim.obj
 0003:000055b0       $SG25532                   000000018006f5b0     c3_FLWSim.obj
 0003:000056c0       $SG25533                   000000018006f6c0     c3_FLWSim.obj
 0003:00005730       $SG25534                   000000018006f730     c3_FLWSim.obj
 0003:000057a0       $SG25600                   000000018006f7a0     FLWSim_sfun_registry.obj
 0003:00005820       $SG24577                   000000018006f820     FLWSim_sfun_registry.obj
 0003:00005898       $SG25604                   000000018006f898     FLWSim_sfun_registry.obj
 0003:000058b8       $SG25609                   000000018006f8b8     FLWSim_sfun_registry.obj
 0003:000058d8       $SG25614                   000000018006f8d8     FLWSim_sfun_registry.obj
 0003:00005900       $SG25605                   000000018006f900     FLWSim_sfun_registry.obj
 0003:00005980       $SG24582                   000000018006f980     FLWSim_sfun_registry.obj
 0003:000059f8       $SG25619                   000000018006f9f8     FLWSim_sfun_registry.obj
 0003:00005a20       $SG25610                   000000018006fa20     FLWSim_sfun_registry.obj
 0003:00005aa0       $SG24590                   000000018006faa0     FLWSim_sfun_registry.obj
 0003:00005b10       $SG25615                   000000018006fb10     FLWSim_sfun_registry.obj
 0003:00005b90       $SG25620                   000000018006fb90     FLWSim_sfun_registry.obj
 0003:00005c10       $SG25624                   000000018006fc10     FLWSim_sfun_registry.obj
 0003:00005c30       $SG25625                   000000018006fc30     FLWSim_sfun_registry.obj
 0003:00005cb0       $SG25629                   000000018006fcb0     FLWSim_sfun_registry.obj
 0003:00005ccc       $SG23581                   000000018006fccc     FLWSim_sfun_registry.obj
 0003:00005cd8       $SG23582                   000000018006fcd8     FLWSim_sfun_registry.obj
 0003:00005cf0       $SG25630                   000000018006fcf0     FLWSim_sfun_registry.obj
 0003:00005d70       $SG25634                   000000018006fd70     FLWSim_sfun_registry.obj
 0003:00005d88       $SG23587                   000000018006fd88     FLWSim_sfun_registry.obj
 0003:00005d90       $SG25635                   000000018006fd90     FLWSim_sfun_registry.obj
 0003:00005e10       $SG23588                   000000018006fe10     FLWSim_sfun_registry.obj
 0003:00005e2c       $SG25675                   000000018006fe2c     FLWSim_sfun_registry.obj
 0003:00005e34       $SG25211                   000000018006fe34     FLWSim_sfun_registry.obj
 0003:00005e38       $SG25639                   000000018006fe38     FLWSim_sfun_registry.obj
 0003:00005e58       $SG25644                   000000018006fe58     FLWSim_sfun_registry.obj
 0003:00005e78       $SG25649                   000000018006fe78     FLWSim_sfun_registry.obj
 0003:00005e98       $SG25654                   000000018006fe98     FLWSim_sfun_registry.obj
 0003:00005eb8       $SG25659                   000000018006feb8     FLWSim_sfun_registry.obj
 0003:00005ed8       $SG25670                   000000018006fed8     FLWSim_sfun_registry.obj
 0003:00005ef0       $SG25640                   000000018006fef0     FLWSim_sfun_registry.obj
 0003:00005f70       $SG25645                   000000018006ff70     FLWSim_sfun_registry.obj
 0003:00005ff0       $SG25650                   000000018006fff0     FLWSim_sfun_registry.obj
 0003:00006070       $SG25655                   0000000180070070     FLWSim_sfun_registry.obj
 0003:000060f0       $SG25660                   00000001800700f0     FLWSim_sfun_registry.obj
 0003:00006170       $SG25664                   0000000180070170     FLWSim_sfun_registry.obj
 0003:00006190       $SG25665                   0000000180070190     FLWSim_sfun_registry.obj
 0003:00006210       $SG25671                   0000000180070210     FLWSim_sfun_registry.obj
 0003:00006290       $SG25676                   0000000180070290     FLWSim_sfun_registry.obj
 0003:00006310       $SG25680                   0000000180070310     FLWSim_sfun_registry.obj
 0003:00006328       $SG25700                   0000000180070328     FLWSim_sfun_registry.obj
 0003:00006340       $SG25681                   0000000180070340     FLWSim_sfun_registry.obj
 0003:000063c0       $SG25685                   00000001800703c0     FLWSim_sfun_registry.obj
 0003:000063d0       $SG25686                   00000001800703d0     FLWSim_sfun_registry.obj
 0003:00006450       $SG25690                   0000000180070450     FLWSim_sfun_registry.obj
 0003:00006460       $SG25691                   0000000180070460     FLWSim_sfun_registry.obj
 0003:000064e0       $SG25695                   00000001800704e0     FLWSim_sfun_registry.obj
 0003:000064f0       $SG25696                   00000001800704f0     FLWSim_sfun_registry.obj
 0003:00006570       $SG25701                   0000000180070570     FLWSim_sfun_registry.obj
 0003:000065f0       $SG25705                   00000001800705f0     FLWSim_sfun_registry.obj
 0003:00006608       $SG25710                   0000000180070608     FLWSim_sfun_registry.obj
 0003:00006618       $SG25777                   0000000180070618     FLWSim_sfun_registry.obj
 0003:00006628       $SG23729                   0000000180070628     FLWSim_sfun_registry.obj
 0003:00006650       $SG25706                   0000000180070650     FLWSim_sfun_registry.obj
 0003:000066d0       $SG25711                   00000001800706d0     FLWSim_sfun_registry.obj
 0003:00006750       $SG25719                   0000000180070750     FLWSim_sfun_registry.obj
 0003:00006760       $SG25720                   0000000180070760     FLWSim_sfun_registry.obj
 0003:000067e0       $SG25724                   00000001800707e0     FLWSim_sfun_registry.obj
 0003:000067f0       $SG25725                   00000001800707f0     FLWSim_sfun_registry.obj
 0003:00006870       $SG25729                   0000000180070870     FLWSim_sfun_registry.obj
 0003:00006880       $SG25730                   0000000180070880     FLWSim_sfun_registry.obj
 0003:00006900       $SG25735                   0000000180070900     FLWSim_sfun_registry.obj
 0003:00006910       $SG25736                   0000000180070910     FLWSim_sfun_registry.obj
 0003:00006990       $SG25740                   0000000180070990     FLWSim_sfun_registry.obj
 0003:00006a08       _sfcnName                  0000000180070a08     FLWSim_sfun_registry.obj
 0003:00006a28       $SG24065                   0000000180070a28     FLWSim_sfun_registry.obj
 0003:00006a30       $SG25765                   0000000180070a30     FLWSim_sfun_registry.obj
 0003:00006aa8       $SG25787                   0000000180070aa8     FLWSim_sfun_registry.obj
 0003:00006ab8       $SG24066                   0000000180070ab8     FLWSim_sfun_registry.obj
 0003:00006ac0       $SG23746                   0000000180070ac0     FLWSim_sfun_registry.obj
 0003:00006b38       $SG25799                   0000000180070b38     FLWSim_sfun_registry.obj
 0003:00006b48       $SG25809                   0000000180070b48     FLWSim_sfun_registry.obj
 0003:00006b58       $SG25821                   0000000180070b58     FLWSim_sfun_registry.obj
 0003:00006b68       $SG25831                   0000000180070b68     FLWSim_sfun_registry.obj
 0003:00006b80       $SG24865                   0000000180070b80     FLWSim_sfun_registry.obj
 0003:00006bf8       $SG25196                   0000000180070bf8     FLWSim_sfun_registry.obj
 0003:00006c10       $SG24870                   0000000180070c10     FLWSim_sfun_registry.obj
 0003:00006c88       $SG24080                   0000000180070c88     FLWSim_sfun_registry.obj
 0003:00006c98       $SG25263                   0000000180070c98     FLWSim_sfun_registry.obj
 0003:00006ca0       $SG25208                   0000000180070ca0     FLWSim_sfun_registry.obj
 0003:00006d18       $SG25264                   0000000180070d18     FLWSim_sfun_registry.obj
 0003:00006d20       $SG25265                   0000000180070d20     FLWSim_sfun_registry.obj
 0003:00006d28       $SG25271                   0000000180070d28     FLWSim_sfun_registry.obj
 0003:00006d30       $SG25266                   0000000180070d30     FLWSim_sfun_registry.obj
 0003:00006da8       $SG25274                   0000000180070da8     FLWSim_sfun_registry.obj
 0003:00006db0       $SG25268                   0000000180070db0     FLWSim_sfun_registry.obj
 0003:00006e2c       $SG25277                   0000000180070e2c     FLWSim_sfun_registry.obj
 0003:00006e38       $SG25279                   0000000180070e38     FLWSim_sfun_registry.obj
 0003:00006e48       $SG25283                   0000000180070e48     FLWSim_sfun_registry.obj
 0003:00006e50       $SG25278                   0000000180070e50     FLWSim_sfun_registry.obj
 0003:00006ecc       $SG25289                   0000000180070ecc     FLWSim_sfun_registry.obj
 0003:00006ed0       $SG25281                   0000000180070ed0     FLWSim_sfun_registry.obj
 0003:00006edc       $SG25285                   0000000180070edc     FLWSim_sfun_registry.obj
 0003:00006ee4       $SG23253                   0000000180070ee4     FLWSim_sfun_registry.obj
 0003:00006ef0       $SG25287                   0000000180070ef0     FLWSim_sfun_registry.obj
 0003:00006f00       $SG25292                   0000000180070f00     FLWSim_sfun_registry.obj
 0003:00006fac       $SG24272                   0000000180070fac     FLWSim_sfun_registry.obj
 0003:00006fb8       $SG24270                   0000000180070fb8     FLWSim_sfun_registry.obj
 0003:00006ff8       $SG24271                   0000000180070ff8     FLWSim_sfun_registry.obj
 0003:00007000       $SG23251                   0000000180071000     FLWSim_sfun_registry.obj
 0003:0000701c       $SG24278                   000000018007101c     FLWSim_sfun_registry.obj
 0003:00007028       $SG24277                   0000000180071028     FLWSim_sfun_registry.obj
 0003:00007030       $SG24276                   0000000180071030     FLWSim_sfun_registry.obj
 0003:00007078       $SG24280                   0000000180071078     FLWSim_sfun_registry.obj
 0003:00007080       $SG24279                   0000000180071080     FLWSim_sfun_registry.obj
 0003:000070d4       $SG24281                   00000001800710d4     FLWSim_sfun_registry.obj
 0003:000070e0       $SG24303                   00000001800710e0     FLWSim_sfun_registry.obj
 0003:00007120       $SG24304                   0000000180071120     FLWSim_sfun_registry.obj
 0003:00007128       $SG24305                   0000000180071128     FLWSim_sfun_registry.obj
 0003:00007130       $SG24309                   0000000180071130     FLWSim_sfun_registry.obj
 0003:00007178       $SG24310                   0000000180071178     FLWSim_sfun_registry.obj
 0003:00007180       $SG24311                   0000000180071180     FLWSim_sfun_registry.obj
 0003:00007188       $SG24313                   0000000180071188     FLWSim_sfun_registry.obj
 0003:00007190       $SG24312                   0000000180071190     FLWSim_sfun_registry.obj
 0003:000071e8       $SG23289                   00000001800711e8     FLWSim_sfun_registry.obj
 0003:00007204       $SG24314                   0000000180071204     FLWSim_sfun_registry.obj
 0003:0000720c       $SG23291                   000000018007120c     FLWSim_sfun_registry.obj
 0003:00007218       $SG24330                   0000000180071218     FLWSim_sfun_registry.obj
 0003:00007220       $SG24329                   0000000180071220     FLWSim_sfun_registry.obj
 0003:00007270       $SG24331                   0000000180071270     FLWSim_sfun_registry.obj
 0003:00007278       $SG24344                   0000000180071278     FLWSim_sfun_registry.obj
 0003:00007280       $SG24343                   0000000180071280     FLWSim_sfun_registry.obj
 0003:000072dc       $SG23329                   00000001800712dc     FLWSim_sfun_registry.obj
 0003:000072e8       $SG24345                   00000001800712e8     FLWSim_sfun_registry.obj
 0003:000072f0       $SG23327                   00000001800712f0     FLWSim_sfun_registry.obj
 0003:00007308       $SG24358                   0000000180071308     FLWSim_sfun_registry.obj
 0003:00007310       $SG24357                   0000000180071310     FLWSim_sfun_registry.obj
 0003:00007370       $SG24359                   0000000180071370     FLWSim_sfun_registry.obj
 0003:00007378       $SG25397                   0000000180071378     FLWSim_sfun_registry.obj
 0003:000073a8       $SG25398                   00000001800713a8     FLWSim_sfun_registry.obj
 0003:000073b0       $SG25399                   00000001800713b0     FLWSim_sfun_registry.obj
 0003:000073b8       $SG25401                   00000001800713b8     FLWSim_sfun_registry.obj
 0003:000073ec       $SG25403                   00000001800713ec     FLWSim_sfun_registry.obj
 0003:000073f8       $SG25402                   00000001800713f8     FLWSim_sfun_registry.obj
 0003:00007400       $SG25406                   0000000180071400     FLWSim_sfun_registry.obj
 0003:00007438       $SG25407                   0000000180071438     FLWSim_sfun_registry.obj
 0003:00007440       $SG25408                   0000000180071440     FLWSim_sfun_registry.obj
 0003:00007448       $SG25410                   0000000180071448     FLWSim_sfun_registry.obj
 0003:00007480       $SG25411                   0000000180071480     FLWSim_sfun_registry.obj
 0003:00007488       $SG25412                   0000000180071488     FLWSim_sfun_registry.obj
 0003:00007490       $SG23365                   0000000180071490     FLWSim_sfun_registry.obj
 0003:000074b0       $SG25414                   00000001800714b0     FLWSim_sfun_registry.obj
 0003:000074e8       $SG25415                   00000001800714e8     FLWSim_sfun_registry.obj
 0003:000074f0       $SG23367                   00000001800714f0     FLWSim_sfun_registry.obj
 0003:000074f8       $SG25416                   00000001800714f8     FLWSim_sfun_registry.obj
 0003:00007500       $SG25419                   0000000180071500     FLWSim_sfun_registry.obj
 0003:00007508       $SG25421                   0000000180071508     FLWSim_sfun_registry.obj
 0003:00007520       $SG25422                   0000000180071520     FLWSim_sfun_registry.obj
 0003:00007558       $SG25423                   0000000180071558     FLWSim_sfun_registry.obj
 0003:00007560       $SG25424                   0000000180071560     FLWSim_sfun_registry.obj
 0003:00007568       $SG23403                   0000000180071568     FLWSim_sfun_registry.obj
 0003:00007588       $SG23405                   0000000180071588     FLWSim_sfun_registry.obj
 0003:00007590       $SG23425                   0000000180071590     FLWSim_sfun_registry.obj
 0003:000075a0       $SG23465                   00000001800715a0     FLWSim_sfun_registry.obj
 0003:000075b8       $SG23496                   00000001800715b8     FLWSim_sfun_registry.obj
 0003:000075c0       $SG25584                   00000001800715c0     FLWSim_sfun_registry.obj
 0003:000075e0       $SG25585                   00000001800715e0     FLWSim_sfun_registry.obj
 0003:00007660       $SG25589                   0000000180071660     FLWSim_sfun_registry.obj
 0003:00007678       $SG25594                   0000000180071678     FLWSim_sfun_registry.obj
 0003:00007690       $SG25590                   0000000180071690     FLWSim_sfun_registry.obj
 0003:00007710       $SG25595                   0000000180071710     FLWSim_sfun_registry.obj
 0003:00007790       $SG24574                   0000000180071790     FLWSim_sfun_registry.obj
 0003:00007808       $SG25599                   0000000180071808     FLWSim_sfun_registry.obj
 0003:00007880       sRtwOptimizationInfoStruct 0000000180071880     FLWSim_sfun.obj
 0003:00007888       sOptimizationInfoFlags     0000000180071888     FLWSim_sfun.obj
 0003:00007890       $SG24101                   0000000180071890     c1_FLWSim.obj
 0003:00007891       $SG24102                   0000000180071891     c1_FLWSim.obj
 0003:00007892       $SG24333                   0000000180071892     c1_FLWSim.obj
 0003:00007893       $SG24334                   0000000180071893     c1_FLWSim.obj
 0003:00007894       $SG24352                   0000000180071894     c1_FLWSim.obj
 0003:00007898       _sfTime_                   0000000180071898     c1_FLWSim.obj
 0003:000078a0       $SG24837                   00000001800718a0     c2_FLWSim.obj
 0003:000078a1       $SG24838                   00000001800718a1     c2_FLWSim.obj
 0003:000078a2       $SG24856                   00000001800718a2     c2_FLWSim.obj
 0003:000078a3       $SG24365                   00000001800718a3     c2_FLWSim.obj
 0003:000078a4       $SG24366                   00000001800718a4     c2_FLWSim.obj
 0003:000078a8       _sfTime_                   00000001800718a8     c2_FLWSim.obj
 0003:000078b0       $SG26279                   00000001800718b0     c3_FLWSim.obj
 0003:000078b1       $SG25535                   00000001800718b1     c3_FLWSim.obj
 0003:000078b2       $SG25536                   00000001800718b2     c3_FLWSim.obj
 0003:000078b8       _sfTime_                   00000001800718b8     c3_FLWSim.obj
 0003:000078c8       $SG25259                   00000001800718c8     FLWSim_sfun_registry.obj
 0003:000078cc       sfGlobalMdlStartCallCounts 00000001800718cc     FLWSim_sfun_registry.obj
 0003:000078d0       ?msg@?3??ReportIndexOutOfBoundsError@@9@9 00000001800718d0     FLWSim_sfun_registry.obj
 0003:000088d0       GS_ExceptionRecord         00000001800728d0     MSVCRT:gs_report.obj
 0003:00008970       GS_ContextRecord           0000000180072970     MSVCRT:gs_report.obj
 0003:00008e40       ?__proc_attached@@3HA      0000000180072e40     MSVCRT:dll_dllmain.obj
 0003:00008e58       ?module_local_atexit_table@@3U_onexit_table_t@@A 0000000180072e58     MSVCRT:utility.obj
 0003:00008e70       ?module_local_at_quick_exit_table@@3U_onexit_table_t@@A 0000000180072e70     MSVCRT:utility.obj
 0003:00008e88       ?is_initialized_as_dll@@3_NA 0000000180072e88     MSVCRT:utility.obj
 0004:00000000       $pdata$load_FLWSim_optimization_info 0000000180073000     FLWSim_sfun.obj
 0004:0000000c       $pdata$unload_FLWSim_optimization_info 000000018007300c     FLWSim_sfun.obj
 0004:00000018       $pdata$sf_FLWSim_method_dispatcher 0000000180073018     FLWSim_sfun.obj
 0004:00000024       $pdata$sf_FLWSim_process_check_sum_call 0000000180073024     FLWSim_sfun.obj
 0004:00000030       $pdata$sf_FLWSim_autoinheritance_info 0000000180073030     FLWSim_sfun.obj
 0004:0000003c       $pdata$sf_FLWSim_get_eml_resolved_functions_info 000000018007303c     FLWSim_sfun.obj
 0004:00000048       $pdata$sf_FLWSim_third_party_uses_info 0000000180073048     FLWSim_sfun.obj
 0004:00000054       $pdata$sf_FLWSim_jit_fallback_info 0000000180073054     FLWSim_sfun.obj
 0004:00000060       $pdata$sf_FLWSim_updateBuildInfo_args_info 0000000180073060     FLWSim_sfun.obj
 0004:0000006c       $pdata$FLWSim_debug_initialize 000000018007306c     FLWSim_sfun.obj
 0004:00000078       $pdata$sf_c1_FLWSim_get_eml_resolved_functions_info 0000000180073078     c1_FLWSim.obj
 0004:00000084       $pdata$sf_c1_FLWSim_get_check_sum 0000000180073084     c1_FLWSim.obj
 0004:00000090       $pdata$c1_FLWSim_method_dispatcher 0000000180073090     c1_FLWSim.obj
 0004:0000009c       $pdata$chart_debug_initialization 000000018007309c     c1_FLWSim.obj
 0004:000000a8       $pdata$chart_debug_initialize_data_addresses 00000001800730a8     c1_FLWSim.obj
 0004:000000b4       $pdata$initialize_c1_FLWSim 00000001800730b4     c1_FLWSim.obj
 0004:000000c0       $pdata$enable_c1_FLWSim    00000001800730c0     c1_FLWSim.obj
 0004:000000cc       $pdata$disable_c1_FLWSim   00000001800730cc     c1_FLWSim.obj
 0004:000000d8       $pdata$get_sim_state_c1_FLWSim 00000001800730d8     c1_FLWSim.obj
 0004:000000e4       $pdata$set_sim_state_c1_FLWSim 00000001800730e4     c1_FLWSim.obj
 0004:000000f0       $pdata$sf_gateway_c1_FLWSim 00000001800730f0     c1_FLWSim.obj
 0004:000000fc       $pdata$mdl_start_c1_FLWSim 00000001800730fc     c1_FLWSim.obj
 0004:00000108       $pdata$init_script_number_translation 0000000180073108     c1_FLWSim.obj
 0004:00000114       $pdata$c1_sf_marshallOut   0000000180073114     c1_FLWSim.obj
 0004:00000120       $pdata$c1_emlrt_marshallIn 0000000180073120     c1_FLWSim.obj
 0004:0000012c       $pdata$c1_b_emlrt_marshallIn 000000018007312c     c1_FLWSim.obj
 0004:00000138       $pdata$c1_sf_marshallIn    0000000180073138     c1_FLWSim.obj
 0004:00000144       $pdata$c1_b_sf_marshallOut 0000000180073144     c1_FLWSim.obj
 0004:00000150       $pdata$c1_c_emlrt_marshallIn 0000000180073150     c1_FLWSim.obj
 0004:0000015c       $pdata$c1_d_emlrt_marshallIn 000000018007315c     c1_FLWSim.obj
 0004:00000168       $pdata$c1_b_sf_marshallIn  0000000180073168     c1_FLWSim.obj
 0004:00000174       $pdata$c1_c_sf_marshallOut 0000000180073174     c1_FLWSim.obj
 0004:00000180       $pdata$c1_d_sf_marshallOut 0000000180073180     c1_FLWSim.obj
 0004:0000018c       $pdata$c1_e_emlrt_marshallIn 000000018007318c     c1_FLWSim.obj
 0004:00000198       $pdata$c1_c_sf_marshallIn  0000000180073198     c1_FLWSim.obj
 0004:000001a4       $pdata$c1_e_sf_marshallOut 00000001800731a4     c1_FLWSim.obj
 0004:000001b0       $pdata$c1_f_emlrt_marshallIn 00000001800731b0     c1_FLWSim.obj
 0004:000001bc       $pdata$c1_d_sf_marshallIn  00000001800731bc     c1_FLWSim.obj
 0004:000001c8       $pdata$c1_f_sf_marshallOut 00000001800731c8     c1_FLWSim.obj
 0004:000001d4       $pdata$c1_g_emlrt_marshallIn 00000001800731d4     c1_FLWSim.obj
 0004:000001e0       $pdata$c1_e_sf_marshallIn  00000001800731e0     c1_FLWSim.obj
 0004:000001ec       $pdata$c1_i_emlrt_marshallIn 00000001800731ec     c1_FLWSim.obj
 0004:000001f8       $pdata$c1_j_emlrt_marshallIn 00000001800731f8     c1_FLWSim.obj
 0004:00000204       $pdata$init_simulink_io_address 0000000180073204     c1_FLWSim.obj
 0004:00000210       $pdata$sf_c1_FLWSim_get_post_codegen_info 0000000180073210     c1_FLWSim.obj
 0004:0000021c       $pdata$sf_c1_FLWSim_get_autoinheritance_info 000000018007321c     c1_FLWSim.obj
 0004:00000228       $pdata$sf_c1_FLWSim_third_party_uses_info 0000000180073228     c1_FLWSim.obj
 0004:00000234       $pdata$sf_c1_FLWSim_jit_fallback_info 0000000180073234     c1_FLWSim.obj
 0004:00000240       $pdata$sf_c1_FLWSim_updateBuildInfo_args_info 0000000180073240     c1_FLWSim.obj
 0004:0000024c       $pdata$sf_get_sim_state_info_c1_FLWSim 000000018007324c     c1_FLWSim.obj
 0004:00000258       $pdata$sf_opaque_initialize_c1_FLWSim 0000000180073258     c1_FLWSim.obj
 0004:00000264       $pdata$sf_opaque_enable_c1_FLWSim 0000000180073264     c1_FLWSim.obj
 0004:00000270       $pdata$sf_opaque_disable_c1_FLWSim 0000000180073270     c1_FLWSim.obj
 0004:0000027c       $pdata$sf_opaque_gateway_c1_FLWSim 000000018007327c     c1_FLWSim.obj
 0004:00000288       $pdata$sf_opaque_get_sim_state_c1_FLWSim 0000000180073288     c1_FLWSim.obj
 0004:00000294       $pdata$sf_opaque_set_sim_state_c1_FLWSim 0000000180073294     c1_FLWSim.obj
 0004:000002a0       $pdata$sf_opaque_terminate_c1_FLWSim 00000001800732a0     c1_FLWSim.obj
 0004:000002ac       $pdata$mdlProcessParameters_c1_FLWSim 00000001800732ac     c1_FLWSim.obj
 0004:000002b8       $pdata$mdlSetWorkWidths_c1_FLWSim 00000001800732b8     c1_FLWSim.obj
 0004:000002c4       $pdata$mdlRTW_c1_FLWSim    00000001800732c4     c1_FLWSim.obj
 0004:000002d0       $pdata$mdlStart_c1_FLWSim  00000001800732d0     c1_FLWSim.obj
 0004:000002dc       $pdata$sf_c2_FLWSim_get_eml_resolved_functions_info 00000001800732dc     c2_FLWSim.obj
 0004:000002e8       $pdata$sf_c2_FLWSim_get_check_sum 00000001800732e8     c2_FLWSim.obj
 0004:000002f4       $pdata$c2_FLWSim_method_dispatcher 00000001800732f4     c2_FLWSim.obj
 0004:00000300       $pdata$chart_debug_initialization 0000000180073300     c2_FLWSim.obj
 0004:0000030c       $pdata$chart_debug_initialize_data_addresses 000000018007330c     c2_FLWSim.obj
 0004:00000318       $pdata$initialize_c2_FLWSim 0000000180073318     c2_FLWSim.obj
 0004:00000324       $pdata$enable_c2_FLWSim    0000000180073324     c2_FLWSim.obj
 0004:00000330       $pdata$disable_c2_FLWSim   0000000180073330     c2_FLWSim.obj
 0004:0000033c       $pdata$get_sim_state_c2_FLWSim 000000018007333c     c2_FLWSim.obj
 0004:00000348       $pdata$set_sim_state_c2_FLWSim 0000000180073348     c2_FLWSim.obj
 0004:00000354       $pdata$sf_gateway_c2_FLWSim 0000000180073354     c2_FLWSim.obj
 0004:00000360       $pdata$mdl_start_c2_FLWSim 0000000180073360     c2_FLWSim.obj
 0004:0000036c       $pdata$init_script_number_translation 000000018007336c     c2_FLWSim.obj
 0004:00000378       $pdata$c2_sf_marshallOut   0000000180073378     c2_FLWSim.obj
 0004:00000384       $pdata$c2_emlrt_marshallIn 0000000180073384     c2_FLWSim.obj
 0004:00000390       $pdata$c2_b_emlrt_marshallIn 0000000180073390     c2_FLWSim.obj
 0004:0000039c       $pdata$c2_sf_marshallIn    000000018007339c     c2_FLWSim.obj
 0004:000003a8       $pdata$c2_b_sf_marshallOut 00000001800733a8     c2_FLWSim.obj
 0004:000003b4       $pdata$c2_c_sf_marshallOut 00000001800733b4     c2_FLWSim.obj
 0004:000003c0       $pdata$c2_d_sf_marshallOut 00000001800733c0     c2_FLWSim.obj
 0004:000003cc       $pdata$c2_c_emlrt_marshallIn 00000001800733cc     c2_FLWSim.obj
 0004:000003d8       $pdata$c2_b_sf_marshallIn  00000001800733d8     c2_FLWSim.obj
 0004:000003e4       $pdata$c2_e_sf_marshallOut 00000001800733e4     c2_FLWSim.obj
 0004:000003f0       $pdata$c2_d_emlrt_marshallIn 00000001800733f0     c2_FLWSim.obj
 0004:000003fc       $pdata$c2_c_sf_marshallIn  00000001800733fc     c2_FLWSim.obj
 0004:00000408       $pdata$c2_f_sf_marshallOut 0000000180073408     c2_FLWSim.obj
 0004:00000414       $pdata$c2_e_emlrt_marshallIn 0000000180073414     c2_FLWSim.obj
 0004:00000420       $pdata$c2_d_sf_marshallIn  0000000180073420     c2_FLWSim.obj
 0004:0000042c       $pdata$c2_g_sf_marshallOut 000000018007342c     c2_FLWSim.obj
 0004:00000438       $pdata$c2_f_emlrt_marshallIn 0000000180073438     c2_FLWSim.obj
 0004:00000444       $pdata$c2_e_sf_marshallIn  0000000180073444     c2_FLWSim.obj
 0004:00000450       $pdata$c2_h_sf_marshallOut 0000000180073450     c2_FLWSim.obj
 0004:0000045c       $pdata$c2_i_sf_marshallOut 000000018007345c     c2_FLWSim.obj
 0004:00000468       $pdata$c2_g_emlrt_marshallIn 0000000180073468     c2_FLWSim.obj
 0004:00000474       $pdata$c2_f_sf_marshallIn  0000000180073474     c2_FLWSim.obj
 0004:00000480       $pdata$c2_invNxN           0000000180073480     c2_FLWSim.obj
 0004:0000048c       $pdata$c2_check_forloop_overflow_error 000000018007348c     c2_FLWSim.obj
 0004:00000498       $pdata$c2_norm             0000000180073498     c2_FLWSim.obj
 0004:000004a4       $pdata$c2_warning          00000001800734a4     c2_FLWSim.obj
 0004:000004b0       $pdata$c2_b_warning        00000001800734b0     c2_FLWSim.obj
 0004:000004bc       $pdata$c2_h_emlrt_marshallIn 00000001800734bc     c2_FLWSim.obj
 0004:000004c8       $pdata$c2_i_emlrt_marshallIn 00000001800734c8     c2_FLWSim.obj
 0004:000004d4       $pdata$c2_k_emlrt_marshallIn 00000001800734d4     c2_FLWSim.obj
 0004:000004e0       $pdata$c2_l_emlrt_marshallIn 00000001800734e0     c2_FLWSim.obj
 0004:000004ec       $pdata$init_simulink_io_address 00000001800734ec     c2_FLWSim.obj
 0004:000004f8       $pdata$sf_c2_FLWSim_get_post_codegen_info 00000001800734f8     c2_FLWSim.obj
 0004:00000504       $pdata$sf_c2_FLWSim_get_autoinheritance_info 0000000180073504     c2_FLWSim.obj
 0004:00000510       $pdata$sf_c2_FLWSim_third_party_uses_info 0000000180073510     c2_FLWSim.obj
 0004:0000051c       $pdata$sf_c2_FLWSim_jit_fallback_info 000000018007351c     c2_FLWSim.obj
 0004:00000528       $pdata$sf_c2_FLWSim_updateBuildInfo_args_info 0000000180073528     c2_FLWSim.obj
 0004:00000534       $pdata$sf_get_sim_state_info_c2_FLWSim 0000000180073534     c2_FLWSim.obj
 0004:00000540       $pdata$sf_opaque_initialize_c2_FLWSim 0000000180073540     c2_FLWSim.obj
 0004:0000054c       $pdata$sf_opaque_enable_c2_FLWSim 000000018007354c     c2_FLWSim.obj
 0004:00000558       $pdata$sf_opaque_disable_c2_FLWSim 0000000180073558     c2_FLWSim.obj
 0004:00000564       $pdata$sf_opaque_gateway_c2_FLWSim 0000000180073564     c2_FLWSim.obj
 0004:00000570       $pdata$sf_opaque_get_sim_state_c2_FLWSim 0000000180073570     c2_FLWSim.obj
 0004:0000057c       $pdata$sf_opaque_set_sim_state_c2_FLWSim 000000018007357c     c2_FLWSim.obj
 0004:00000588       $pdata$sf_opaque_terminate_c2_FLWSim 0000000180073588     c2_FLWSim.obj
 0004:00000594       $pdata$mdlProcessParameters_c2_FLWSim 0000000180073594     c2_FLWSim.obj
 0004:000005a0       $pdata$mdlSetWorkWidths_c2_FLWSim 00000001800735a0     c2_FLWSim.obj
 0004:000005ac       $pdata$mdlRTW_c2_FLWSim    00000001800735ac     c2_FLWSim.obj
 0004:000005b8       $pdata$mdlStart_c2_FLWSim  00000001800735b8     c2_FLWSim.obj
 0004:000005c4       $pdata$sf_c3_FLWSim_get_eml_resolved_functions_info 00000001800735c4     c3_FLWSim.obj
 0004:000005d0       $pdata$sf_c3_FLWSim_get_check_sum 00000001800735d0     c3_FLWSim.obj
 0004:000005dc       $pdata$c3_FLWSim_method_dispatcher 00000001800735dc     c3_FLWSim.obj
 0004:000005e8       $pdata$chart_debug_initialization 00000001800735e8     c3_FLWSim.obj
 0004:000005f4       $pdata$chart_debug_initialize_data_addresses 00000001800735f4     c3_FLWSim.obj
 0004:00000600       $pdata$initialize_c3_FLWSim 0000000180073600     c3_FLWSim.obj
 0004:0000060c       $pdata$enable_c3_FLWSim    000000018007360c     c3_FLWSim.obj
 0004:00000618       $pdata$disable_c3_FLWSim   0000000180073618     c3_FLWSim.obj
 0004:00000624       $pdata$get_sim_state_c3_FLWSim 0000000180073624     c3_FLWSim.obj
 0004:00000630       $pdata$set_sim_state_c3_FLWSim 0000000180073630     c3_FLWSim.obj
 0004:0000063c       $pdata$sf_gateway_c3_FLWSim 000000018007363c     c3_FLWSim.obj
 0004:00000648       $pdata$mdl_start_c3_FLWSim 0000000180073648     c3_FLWSim.obj
 0004:00000654       $pdata$c3_chartstep_c3_FLWSim 0000000180073654     c3_FLWSim.obj
 0004:00000660       $pdata$c3_p_LeftToe        0000000180073660     c3_FLWSim.obj
 0004:0000066c       $pdata$c3_p_RightToe       000000018007366c     c3_FLWSim.obj
 0004:00000678       $pdata$c3_Jp_LeftToe       0000000180073678     c3_FLWSim.obj
 0004:00000684       $pdata$c3_Jp_RightToe      0000000180073684     c3_FLWSim.obj
 0004:00000690       $pdata$c3_dJp_LeftToe      0000000180073690     c3_FLWSim.obj
 0004:0000069c       $pdata$c3_dJp_RightToe     000000018007369c     c3_FLWSim.obj
 0004:000006a8       $pdata$c3_InertiaMatrix    00000001800736a8     c3_FLWSim.obj
 0004:000006b4       $pdata$c3_CoriolisTerm     00000001800736b4     c3_FLWSim.obj
 0004:000006c0       $pdata$c3_GravityVector    00000001800736c0     c3_FLWSim.obj
 0004:000006cc       $pdata$init_script_number_translation 00000001800736cc     c3_FLWSim.obj
 0004:000006d8       $pdata$c3_sf_marshallOut   00000001800736d8     c3_FLWSim.obj
 0004:000006e4       $pdata$c3_emlrt_marshallIn 00000001800736e4     c3_FLWSim.obj
 0004:000006f0       $pdata$c3_b_emlrt_marshallIn 00000001800736f0     c3_FLWSim.obj
 0004:000006fc       $pdata$c3_sf_marshallIn    00000001800736fc     c3_FLWSim.obj
 0004:00000708       $pdata$c3_b_sf_marshallOut 0000000180073708     c3_FLWSim.obj
 0004:00000714       $pdata$c3_c_sf_marshallOut 0000000180073714     c3_FLWSim.obj
 0004:00000720       $pdata$c3_d_sf_marshallOut 0000000180073720     c3_FLWSim.obj
 0004:0000072c       $pdata$c3_c_emlrt_marshallIn 000000018007372c     c3_FLWSim.obj
 0004:00000738       $pdata$c3_b_sf_marshallIn  0000000180073738     c3_FLWSim.obj
 0004:00000744       $pdata$c3_e_sf_marshallOut 0000000180073744     c3_FLWSim.obj
 0004:00000750       $pdata$c3_f_sf_marshallOut 0000000180073750     c3_FLWSim.obj
 0004:0000075c       $pdata$c3_g_sf_marshallOut 000000018007375c     c3_FLWSim.obj
 0004:00000768       $pdata$c3_d_emlrt_marshallIn 0000000180073768     c3_FLWSim.obj
 0004:00000774       $pdata$c3_c_sf_marshallIn  0000000180073774     c3_FLWSim.obj
 0004:00000780       $pdata$c3_h_sf_marshallOut 0000000180073780     c3_FLWSim.obj
 0004:0000078c       $pdata$c3_e_emlrt_marshallIn 000000018007378c     c3_FLWSim.obj
 0004:00000798       $pdata$c3_d_sf_marshallIn  0000000180073798     c3_FLWSim.obj
 0004:000007a4       $pdata$c3_i_sf_marshallOut 00000001800737a4     c3_FLWSim.obj
 0004:000007b0       $pdata$c3_f_emlrt_marshallIn 00000001800737b0     c3_FLWSim.obj
 0004:000007bc       $pdata$c3_e_sf_marshallIn  00000001800737bc     c3_FLWSim.obj
 0004:000007c8       $pdata$c3_j_sf_marshallOut 00000001800737c8     c3_FLWSim.obj
 0004:000007d4       $pdata$c3_g_emlrt_marshallIn 00000001800737d4     c3_FLWSim.obj
 0004:000007e0       $pdata$c3_f_sf_marshallIn  00000001800737e0     c3_FLWSim.obj
 0004:000007ec       $pdata$c3_k_sf_marshallOut 00000001800737ec     c3_FLWSim.obj
 0004:000007f8       $pdata$c3_h_emlrt_marshallIn 00000001800737f8     c3_FLWSim.obj
 0004:00000804       $pdata$c3_g_sf_marshallIn  0000000180073804     c3_FLWSim.obj
 0004:00000810       $pdata$c3_l_sf_marshallOut 0000000180073810     c3_FLWSim.obj
 0004:0000081c       $pdata$c3_m_sf_marshallOut 000000018007381c     c3_FLWSim.obj
 0004:00000828       $pdata$c3_i_emlrt_marshallIn 0000000180073828     c3_FLWSim.obj
 0004:00000834       $pdata$c3_h_sf_marshallIn  0000000180073834     c3_FLWSim.obj
 0004:00000840       $pdata$c3_n_sf_marshallOut 0000000180073840     c3_FLWSim.obj
 0004:0000084c       $pdata$c3_j_emlrt_marshallIn 000000018007384c     c3_FLWSim.obj
 0004:00000858       $pdata$c3_i_sf_marshallIn  0000000180073858     c3_FLWSim.obj
 0004:00000864       $pdata$c3_o_sf_marshallOut 0000000180073864     c3_FLWSim.obj
 0004:00000870       $pdata$c3_k_emlrt_marshallIn 0000000180073870     c3_FLWSim.obj
 0004:0000087c       $pdata$c3_j_sf_marshallIn  000000018007387c     c3_FLWSim.obj
 0004:00000888       $pdata$c3_rem              0000000180073888     c3_FLWSim.obj
 0004:00000894       $pdata$c3_mod              0000000180073894     c3_FLWSim.obj
 0004:000008a0       $pdata$c3_error            00000001800738a0     c3_FLWSim.obj
 0004:000008ac       $pdata$c3_mpower           00000001800738ac     c3_FLWSim.obj
 0004:000008b8       $pdata$c3_invNxN           00000001800738b8     c3_FLWSim.obj
 0004:000008c4       $pdata$c3_check_forloop_overflow_error 00000001800738c4     c3_FLWSim.obj
 0004:000008d0       $pdata$c3_norm             00000001800738d0     c3_FLWSim.obj
 0004:000008dc       $pdata$c3_warning          00000001800738dc     c3_FLWSim.obj
 0004:000008e8       $pdata$c3_b_warning        00000001800738e8     c3_FLWSim.obj
 0004:000008f4       $pdata$c3_b_mpower         00000001800738f4     c3_FLWSim.obj
 0004:00000900       $pdata$c3_b_invNxN         0000000180073900     c3_FLWSim.obj
 0004:0000090c       $pdata$c3_b_norm           000000018007390c     c3_FLWSim.obj
 0004:00000918       $pdata$c3_l_emlrt_marshallIn 0000000180073918     c3_FLWSim.obj
 0004:00000924       $pdata$c3_m_emlrt_marshallIn 0000000180073924     c3_FLWSim.obj
 0004:00000930       $pdata$c3_o_emlrt_marshallIn 0000000180073930     c3_FLWSim.obj
 0004:0000093c       $pdata$c3_p_emlrt_marshallIn 000000018007393c     c3_FLWSim.obj
 0004:00000948       $pdata$init_simulink_io_address 0000000180073948     c3_FLWSim.obj
 0004:00000954       $pdata$sf_c3_FLWSim_get_post_codegen_info 0000000180073954     c3_FLWSim.obj
 0004:00000960       $pdata$sf_c3_FLWSim_get_autoinheritance_info 0000000180073960     c3_FLWSim.obj
 0004:0000096c       $pdata$sf_c3_FLWSim_third_party_uses_info 000000018007396c     c3_FLWSim.obj
 0004:00000978       $pdata$sf_c3_FLWSim_jit_fallback_info 0000000180073978     c3_FLWSim.obj
 0004:00000984       $pdata$sf_c3_FLWSim_updateBuildInfo_args_info 0000000180073984     c3_FLWSim.obj
 0004:00000990       $pdata$sf_get_sim_state_info_c3_FLWSim 0000000180073990     c3_FLWSim.obj
 0004:0000099c       $pdata$sf_opaque_initialize_c3_FLWSim 000000018007399c     c3_FLWSim.obj
 0004:000009a8       $pdata$sf_opaque_enable_c3_FLWSim 00000001800739a8     c3_FLWSim.obj
 0004:000009b4       $pdata$sf_opaque_disable_c3_FLWSim 00000001800739b4     c3_FLWSim.obj
 0004:000009c0       $pdata$sf_opaque_gateway_c3_FLWSim 00000001800739c0     c3_FLWSim.obj
 0004:000009cc       $pdata$sf_opaque_get_sim_state_c3_FLWSim 00000001800739cc     c3_FLWSim.obj
 0004:000009d8       $pdata$sf_opaque_set_sim_state_c3_FLWSim 00000001800739d8     c3_FLWSim.obj
 0004:000009e4       $pdata$sf_opaque_terminate_c3_FLWSim 00000001800739e4     c3_FLWSim.obj
 0004:000009f0       $pdata$mdlProcessParameters_c3_FLWSim 00000001800739f0     c3_FLWSim.obj
 0004:000009fc       $pdata$mdlSetWorkWidths_c3_FLWSim 00000001800739fc     c3_FLWSim.obj
 0004:00000a08       $pdata$mdlRTW_c3_FLWSim    0000000180073a08     c3_FLWSim.obj
 0004:00000a14       $pdata$mdlStart_c3_FLWSim  0000000180073a14     c3_FLWSim.obj
 0004:00000a20       $pdata$mexFunction         0000000180073a20     FLWSim_sfun_registry.obj
 0004:00000a2c       $pdata$_ssSetInputPortDirectFeedThroughFcn 0000000180073a2c     FLWSim_sfun_registry.obj
 0004:00000a38       $pdata$_ssGetInputPortSignalPtrsFcn 0000000180073a38     FLWSim_sfun_registry.obj
 0004:00000a44       $pdata$_ssGetInputPortSignalFcn 0000000180073a44     FLWSim_sfun_registry.obj
 0004:00000a50       $pdata$_ssSetInputPortReusableFcn 0000000180073a50     FLWSim_sfun_registry.obj
 0004:00000a5c       $pdata$_ssSetOutputPortReusableFcn 0000000180073a5c     FLWSim_sfun_registry.obj
 0004:00000a68       $pdata$_ssSetSymbolicDimsSupport 0000000180073a68     FLWSim_sfun_registry.obj
 0004:00000a74       $pdata$_ssRegisterSymbolicDimsExpr 0000000180073a74     FLWSim_sfun_registry.obj
 0004:00000a80       $pdata$_ssRegisterSymbolicDims 0000000180073a80     FLWSim_sfun_registry.obj
 0004:00000a8c       $pdata$_ssRegisterSymbolicDimsString 0000000180073a8c     FLWSim_sfun_registry.obj
 0004:00000a98       $pdata$_ssRegisterSymbolicDimsIntValue 0000000180073a98     FLWSim_sfun_registry.obj
 0004:00000aa4       $pdata$_ssRegisterSymbolicDimsPlus 0000000180073aa4     FLWSim_sfun_registry.obj
 0004:00000ab0       $pdata$_ssRegisterSymbolicDimsMinus 0000000180073ab0     FLWSim_sfun_registry.obj
 0004:00000abc       $pdata$_ssRegisterSymbolicDimsMultiply 0000000180073abc     FLWSim_sfun_registry.obj
 0004:00000ac8       $pdata$_ssRegisterSymbolicDimsDivide 0000000180073ac8     FLWSim_sfun_registry.obj
 0004:00000ad4       $pdata$_ssGetNumSymbolicDims 0000000180073ad4     FLWSim_sfun_registry.obj
 0004:00000ae0       $pdata$_ssGetSymbolicDim   0000000180073ae0     FLWSim_sfun_registry.obj
 0004:00000aec       $pdata$_ssSetInputPortSymbolicDimsId 0000000180073aec     FLWSim_sfun_registry.obj
 0004:00000af8       $pdata$_ssGetCompInputPortSymbolicDimsId 0000000180073af8     FLWSim_sfun_registry.obj
 0004:00000b04       $pdata$_ssSetCompInputPortSymbolicDimsId 0000000180073b04     FLWSim_sfun_registry.obj
 0004:00000b10       $pdata$_ssSetOutputPortSymbolicDimsId 0000000180073b10     FLWSim_sfun_registry.obj
 0004:00000b1c       $pdata$_ssGetCompOutputPortSymbolicDimsId 0000000180073b1c     FLWSim_sfun_registry.obj
 0004:00000b28       $pdata$_ssSetCompOutputPortSymbolicDimsId 0000000180073b28     FLWSim_sfun_registry.obj
 0004:00000b34       $pdata$_ssSetCompDWorkSymbolicDimsId 0000000180073b34     FLWSim_sfun_registry.obj
 0004:00000b40       $pdata$ssGetIsZeroCrossControlDisabled 0000000180073b40     FLWSim_sfun_registry.obj
 0004:00000b4c       $pdata$ssSetIsInputPortUsedForContZcSignal 0000000180073b4c     FLWSim_sfun_registry.obj
 0004:00000b58       $pdata$ssSetZcSignalIsZcElementDisc 0000000180073b58     FLWSim_sfun_registry.obj
 0004:00000b64       $pdata$ssSetZcSignalName   0000000180073b64     FLWSim_sfun_registry.obj
 0004:00000b70       $pdata$ssSetZcSignalWidth  0000000180073b70     FLWSim_sfun_registry.obj
 0004:00000b7c       $pdata$ssSetZcSignalZcEventType 0000000180073b7c     FLWSim_sfun_registry.obj
 0004:00000b88       $pdata$ssSetZcSignalType   0000000180073b88     FLWSim_sfun_registry.obj
 0004:00000b94       $pdata$ssSetZcSignalZcTol  0000000180073b94     FLWSim_sfun_registry.obj
 0004:00000ba0       $pdata$ssSetZcSignalNeedsEventNotification 0000000180073ba0     FLWSim_sfun_registry.obj
 0004:00000bac       $pdata$ssCreateAndAddZcSignalInfo 0000000180073bac     FLWSim_sfun_registry.obj
 0004:00000bb8       $pdata$ssCloneAndAddZcSignalInfo 0000000180073bb8     FLWSim_sfun_registry.obj
 0004:00000bc4       $pdata$ssGetNumZcSignals   0000000180073bc4     FLWSim_sfun_registry.obj
 0004:00000bd0       $pdata$ssGetZcSignalVector 0000000180073bd0     FLWSim_sfun_registry.obj
 0004:00000bdc       $pdata$ssGetZcSignalName   0000000180073bdc     FLWSim_sfun_registry.obj
 0004:00000be8       $pdata$ssGetZcSignalWidth  0000000180073be8     FLWSim_sfun_registry.obj
 0004:00000bf4       $pdata$ssGetZcSignalZcEventType 0000000180073bf4     FLWSim_sfun_registry.obj
 0004:00000c00       $pdata$ssGetZcSignalZcEvents 0000000180073c00     FLWSim_sfun_registry.obj
 0004:00000c0c       $pdata$ssGetZcSignalType   0000000180073c0c     FLWSim_sfun_registry.obj
 0004:00000c18       $pdata$ssGetZcSignalZcTol  0000000180073c18     FLWSim_sfun_registry.obj
 0004:00000c24       $pdata$ssGetZcSignalNeedsEventNotification 0000000180073c24     FLWSim_sfun_registry.obj
 0004:00000c30       $pdata$ssGetZcSignalIsZcElementDisc 0000000180073c30     FLWSim_sfun_registry.obj
 0004:00000c3c       $pdata$ssGetIsInputPortElementContinuous 0000000180073c3c     FLWSim_sfun_registry.obj
 0004:00000c48       $pdata$_ssSetIWorkValueFcn 0000000180073c48     FLWSim_sfun_registry.obj
 0004:00000c54       $pdata$_ssGetIWorkValueFcn 0000000180073c54     FLWSim_sfun_registry.obj
 0004:00000c60       $pdata$_ssSetRWorkValueFcn 0000000180073c60     FLWSim_sfun_registry.obj
 0004:00000c6c       $pdata$_ssGetRWorkValueFcn 0000000180073c6c     FLWSim_sfun_registry.obj
 0004:00000c78       $pdata$_ssSetPWorkValueFcn 0000000180073c78     FLWSim_sfun_registry.obj
 0004:00000c84       $pdata$_ssGetPWorkValueFcn 0000000180073c84     FLWSim_sfun_registry.obj
 0004:00000c90       $pdata$ssGetDTypeIdFromMxArray 0000000180073c90     FLWSim_sfun_registry.obj
 0004:00000c9c       $pdata$ssWriteRTWStr       0000000180073c9c     FLWSim_sfun_registry.obj
 0004:00000ca8       $pdata$ssWriteRTWNameValuePair 0000000180073ca8     FLWSim_sfun_registry.obj
 0004:00000cb4       $pdata$ssWriteRTWParamSettings 0000000180073cb4     FLWSim_sfun_registry.obj
 0004:00000cc0       $pdata$ssWriteRTWParameters 0000000180073cc0     FLWSim_sfun_registry.obj
 0004:00000ccc       $pdata$ssWriteRTWWorkVect  0000000180073ccc     FLWSim_sfun_registry.obj
 0004:00000cd8       $pdata$ssWriteRTWMxVectParam 0000000180073cd8     FLWSim_sfun_registry.obj
 0004:00000ce4       $pdata$ssWriteRTWMx2dMatParam 0000000180073ce4     FLWSim_sfun_registry.obj
 0004:00000cf0       $pdata$_ssSetInputPortMatrixDimensions 0000000180073cf0     FLWSim_sfun_registry.obj
 0004:00000cfc       $pdata$_ssSetOutputPortMatrixDimensions 0000000180073cfc     FLWSim_sfun_registry.obj
 0004:00000d08       $pdata$_ssSetInputPortVectorDimension 0000000180073d08     FLWSim_sfun_registry.obj
 0004:00000d14       $pdata$_ssSetOutputPortVectorDimension 0000000180073d14     FLWSim_sfun_registry.obj
 0004:00000d20       $pdata$ssIsRunTimeParamTunable 0000000180073d20     FLWSim_sfun_registry.obj
 0004:00000d2c       $pdata$ssGetSFuncBlockHandle 0000000180073d2c     FLWSim_sfun_registry.obj
 0004:00000d38       $pdata$_ssGetCurrentInputPortWidth 0000000180073d38     FLWSim_sfun_registry.obj
 0004:00000d44       $pdata$_ssGetCurrentOutputPortWidth 0000000180073d44     FLWSim_sfun_registry.obj
 0004:00000d50       $pdata$_ssGetCallSystemNumFcnCallDestinations 0000000180073d50     FLWSim_sfun_registry.obj
 0004:00000d5c       $pdata$ssGetParameterTuningCompliance 0000000180073d5c     FLWSim_sfun_registry.obj
 0004:00000d68       $pdata$ssWarning           0000000180073d68     FLWSim_sfun_registry.obj
 0004:00000d74       $pdata$_ssGetAbsTol        0000000180073d74     FLWSim_sfun_registry.obj
 0004:00000d80       $pdata$sf_process_check_sum_call 0000000180073d80     FLWSim_sfun_registry.obj
 0004:00000d8c       $pdata$sf_process_autoinheritance_call 0000000180073d8c     FLWSim_sfun_registry.obj
 0004:00000d98       $pdata$sf_process_get_third_party_uses_info_call 0000000180073d98     FLWSim_sfun_registry.obj
 0004:00000da4       $pdata$sf_process_get_jit_fallback_info_call 0000000180073da4     FLWSim_sfun_registry.obj
 0004:00000db0       $pdata$sf_process_get_updateBuildInfo_args_info_call 0000000180073db0     FLWSim_sfun_registry.obj
 0004:00000dbc       $pdata$sf_process_get_eml_resolved_functions_info_call 0000000180073dbc     FLWSim_sfun_registry.obj
 0004:00000dc8       $pdata$sf_mex_unlock_call  0000000180073dc8     FLWSim_sfun_registry.obj
 0004:00000dd4       $pdata$sf_debug_api_wrapper 0000000180073dd4     FLWSim_sfun_registry.obj
 0004:00000de0       $pdata$ProcessMexSfunctionCmdLineCall 0000000180073de0     FLWSim_sfun_registry.obj
 0004:00000dec       $pdata$sf_machine_global_initializer_called 0000000180073dec     FLWSim_sfun_registry.obj
 0004:00000df8       $pdata$sf_machine_global_method_dispatcher 0000000180073df8     FLWSim_sfun_registry.obj
 0004:00000e04       $pdata$sf_machine_global_terminator 0000000180073e04     FLWSim_sfun_registry.obj
 0004:00000e10       $pdata$sf_register_machine_exported_symbols 0000000180073e10     FLWSim_sfun_registry.obj
 0004:00000e1c       $pdata$sf_machine_global_initializer 0000000180073e1c     FLWSim_sfun_registry.obj
 0004:00000e28       $pdata$mdlGetSimState      0000000180073e28     FLWSim_sfun_registry.obj
 0004:00000e34       $pdata$mdlSetSimState      0000000180073e34     FLWSim_sfun_registry.obj
 0004:00000e40       $pdata$mdlSetWorkWidths    0000000180073e40     FLWSim_sfun_registry.obj
 0004:00000e4c       $pdata$mdlProcessParameters 0000000180073e4c     FLWSim_sfun_registry.obj
 0004:00000e58       $pdata$mdl_start_processing 0000000180073e58     FLWSim_sfun_registry.obj
 0004:00000e64       $pdata$mdl_terminate_processing 0000000180073e64     FLWSim_sfun_registry.obj
 0004:00000e70       $pdata$mdlStart            0000000180073e70     FLWSim_sfun_registry.obj
 0004:00000e7c       $pdata$mdlTerminate        0000000180073e7c     FLWSim_sfun_registry.obj
 0004:00000e88       $pdata$mdlInitializeSizes  0000000180073e88     FLWSim_sfun_registry.obj
 0004:00000e94       $pdata$mdlInitializeSampleTimes 0000000180073e94     FLWSim_sfun_registry.obj
 0004:00000ea0       $pdata$mdl_outputs_continuous_legacy 0000000180073ea0     FLWSim_sfun_registry.obj
 0004:00000eac       $pdata$mdl_outputs_processing 0000000180073eac     FLWSim_sfun_registry.obj
 0004:00000eb8       $pdata$mdl_zeroCrossings_processing 0000000180073eb8     FLWSim_sfun_registry.obj
 0004:00000ec4       $pdata$mdlZeroCrossings    0000000180073ec4     FLWSim_sfun_registry.obj
 0004:00000ed0       $pdata$mdl_derivatives_processing 0000000180073ed0     FLWSim_sfun_registry.obj
 0004:00000edc       $pdata$mdlDerivatives      0000000180073edc     FLWSim_sfun_registry.obj
 0004:00000ee8       $pdata$mdl_initialize_conditions_processing 0000000180073ee8     FLWSim_sfun_registry.obj
 0004:00000ef4       $pdata$mdlInitializeConditions 0000000180073ef4     FLWSim_sfun_registry.obj
 0004:00000f00       $pdata$mdl_ext_mode_exec_processing 0000000180073f00     FLWSim_sfun_registry.obj
 0004:00000f0c       $pdata$mdlExtModeExec      0000000180073f0c     FLWSim_sfun_registry.obj
 0004:00000f18       $pdata$mdlRTW              0000000180073f18     FLWSim_sfun_registry.obj
 0004:00000f24       $pdata$mdl_enable_processing 0000000180073f24     FLWSim_sfun_registry.obj
 0004:00000f30       $pdata$mdlEnable           0000000180073f30     FLWSim_sfun_registry.obj
 0004:00000f3c       $pdata$mdl_disable_processing 0000000180073f3c     FLWSim_sfun_registry.obj
 0004:00000f48       $pdata$mdlDisable          0000000180073f48     FLWSim_sfun_registry.obj
 0004:00000f54       $pdata$mdlOutputs          0000000180073f54     FLWSim_sfun_registry.obj
 0004:00000f60       $pdata$mdl_update_processing 0000000180073f60     FLWSim_sfun_registry.obj
 0004:00000f6c       $pdata$mdlUpdate           0000000180073f6c     FLWSim_sfun_registry.obj
 0004:00000f78       $pdata$ProcessMexSfunctionEveryCall 0000000180073f78     FLWSim_sfun_registry.obj
 0004:00000f84       $pdata$_RegNumInputPortsCB 0000000180073f84     FLWSim_sfun_registry.obj
 0004:00000f90       $pdata$_RegNumOutputPortsCB 0000000180073f90     FLWSim_sfun_registry.obj
 0004:00000f9c       $pdata$_CreateSimStruct    0000000180073f9c     FLWSim_sfun_registry.obj
 0004:00000fa8       $pdata$_ProcessMexSfunctionCmdLineCall 0000000180073fa8     FLWSim_sfun_registry.obj
 0004:00000fb4       $pdata$ReportIndexOutOfBoundsError 0000000180073fb4     FLWSim_sfun_registry.obj
 0004:00000fc0       $pdata$_vsnprintf_l        0000000180073fc0     FLWSim_sfun_registry.obj
 0004:00000fcc       $pdata$_vsprintf_l         0000000180073fcc     FLWSim_sfun_registry.obj
 0004:00000fd8       $pdata$sprintf             0000000180073fd8     FLWSim_sfun_registry.obj
 0004:00000fe4       $pdata$CoriolisTerm_src    0000000180073fe4     CoriolisTerm_src.obj
 0004:00000ff0       $pdata$output1             0000000180073ff0     CoriolisTerm_src.obj
 0004:00000ffc       $pdata$Cos                 0000000180073ffc     CoriolisTerm_src.obj
 0004:00001008       $pdata$Power               0000000180074008     CoriolisTerm_src.obj
 0004:00001014       $pdata$Sin                 0000000180074014     CoriolisTerm_src.obj
 0004:00001020       $pdata$GravityVector_src   0000000180074020     GravityVector_src.obj
 0004:0000102c       $pdata$output1             000000018007402c     GravityVector_src.obj
 0004:00001038       $pdata$InertiaMatrix_src   0000000180074038     InertiaMatrix_src.obj
 0004:00001044       $pdata$output1             0000000180074044     InertiaMatrix_src.obj
 0004:00001050       $pdata$AMBody_LeftShin_src 0000000180074050     AMBody_LeftShin_src.obj
 0004:0000105c       $pdata$AMBody_LeftThigh_src 000000018007405c     AMBody_LeftThigh_src.obj
 0004:00001068       $pdata$AMBody_RightShin_src 0000000180074068     AMBody_RightShin_src.obj
 0004:00001074       $pdata$AMBody_RightThigh_src 0000000180074074     AMBody_RightThigh_src.obj
 0004:00001080       $pdata$AMBody_torso_src    0000000180074080     AMBody_torso_src.obj
 0004:0000108c       $pdata$AMWorld_LeftShin_src 000000018007408c     AMWorld_LeftShin_src.obj
 0004:00001098       $pdata$AMWorld_LeftThigh_src 0000000180074098     AMWorld_LeftThigh_src.obj
 0004:000010a4       $pdata$AMWorld_RightShin_src 00000001800740a4     AMWorld_RightShin_src.obj
 0004:000010b0       $pdata$AMWorld_RightThigh_src 00000001800740b0     AMWorld_RightThigh_src.obj
 0004:000010bc       $pdata$AMWorld_torso_src   00000001800740bc     AMWorld_torso_src.obj
 0004:000010c8       $pdata$dJb_Head_src        00000001800740c8     dJb_Head_src.obj
 0004:000010d4       $pdata$output1             00000001800740d4     dJb_Head_src.obj
 0004:000010e0       $pdata$dJb_LeftHip_src     00000001800740e0     dJb_LeftHip_src.obj
 0004:000010ec       $pdata$output1             00000001800740ec     dJb_LeftHip_src.obj
 0004:000010f8       $pdata$dJb_LeftKnee_src    00000001800740f8     dJb_LeftKnee_src.obj
 0004:00001104       $pdata$output1             0000000180074104     dJb_LeftKnee_src.obj
 0004:00001110       $pdata$dJb_LeftShin_src    0000000180074110     dJb_LeftShin_src.obj
 0004:0000111c       $pdata$output1             000000018007411c     dJb_LeftShin_src.obj
 0004:00001128       $pdata$dJb_LeftThigh_src   0000000180074128     dJb_LeftThigh_src.obj
 0004:00001134       $pdata$output1             0000000180074134     dJb_LeftThigh_src.obj
 0004:00001140       $pdata$dJb_LeftToe_src     0000000180074140     dJb_LeftToe_src.obj
 0004:0000114c       $pdata$output1             000000018007414c     dJb_LeftToe_src.obj
 0004:00001158       $pdata$dJb_RightHip_src    0000000180074158     dJb_RightHip_src.obj
 0004:00001164       $pdata$output1             0000000180074164     dJb_RightHip_src.obj
 0004:00001170       $pdata$dJb_RightKnee_src   0000000180074170     dJb_RightKnee_src.obj
 0004:0000117c       $pdata$output1             000000018007417c     dJb_RightKnee_src.obj
 0004:00001188       $pdata$dJb_RightShin_src   0000000180074188     dJb_RightShin_src.obj
 0004:00001194       $pdata$output1             0000000180074194     dJb_RightShin_src.obj
 0004:000011a0       $pdata$dJb_RightThigh_src  00000001800741a0     dJb_RightThigh_src.obj
 0004:000011ac       $pdata$output1             00000001800741ac     dJb_RightThigh_src.obj
 0004:000011b8       $pdata$dJb_RightToe_src    00000001800741b8     dJb_RightToe_src.obj
 0004:000011c4       $pdata$output1             00000001800741c4     dJb_RightToe_src.obj
 0004:000011d0       $pdata$dJb_torso_src       00000001800741d0     dJb_torso_src.obj
 0004:000011dc       $pdata$output1             00000001800741dc     dJb_torso_src.obj
 0004:000011e8       $pdata$dJp_Head_src        00000001800741e8     dJp_Head_src.obj
 0004:000011f4       $pdata$output1             00000001800741f4     dJp_Head_src.obj
 0004:00001200       $pdata$dJp_LeftHip_src     0000000180074200     dJp_LeftHip_src.obj
 0004:0000120c       $pdata$dJp_LeftKnee_src    000000018007420c     dJp_LeftKnee_src.obj
 0004:00001218       $pdata$output1             0000000180074218     dJp_LeftKnee_src.obj
 0004:00001224       $pdata$dJp_LeftShin_src    0000000180074224     dJp_LeftShin_src.obj
 0004:00001230       $pdata$output1             0000000180074230     dJp_LeftShin_src.obj
 0004:0000123c       $pdata$dJp_LeftThigh_src   000000018007423c     dJp_LeftThigh_src.obj
 0004:00001248       $pdata$output1             0000000180074248     dJp_LeftThigh_src.obj
 0004:00001254       $pdata$dJp_LeftToe_src     0000000180074254     dJp_LeftToe_src.obj
 0004:00001260       $pdata$output1             0000000180074260     dJp_LeftToe_src.obj
 0004:0000126c       $pdata$dJp_RightHip_src    000000018007426c     dJp_RightHip_src.obj
 0004:00001278       $pdata$dJp_RightKnee_src   0000000180074278     dJp_RightKnee_src.obj
 0004:00001284       $pdata$output1             0000000180074284     dJp_RightKnee_src.obj
 0004:00001290       $pdata$dJp_RightShin_src   0000000180074290     dJp_RightShin_src.obj
 0004:0000129c       $pdata$output1             000000018007429c     dJp_RightShin_src.obj
 0004:000012a8       $pdata$dJp_RightThigh_src  00000001800742a8     dJp_RightThigh_src.obj
 0004:000012b4       $pdata$output1             00000001800742b4     dJp_RightThigh_src.obj
 0004:000012c0       $pdata$dJp_RightToe_src    00000001800742c0     dJp_RightToe_src.obj
 0004:000012cc       $pdata$output1             00000001800742cc     dJp_RightToe_src.obj
 0004:000012d8       $pdata$dJp_torso_src       00000001800742d8     dJp_torso_src.obj
 0004:000012e4       $pdata$output1             00000001800742e4     dJp_torso_src.obj
 0004:000012f0       $pdata$dJs_Head_src        00000001800742f0     dJs_Head_src.obj
 0004:000012fc       $pdata$dJs_LeftHip_src     00000001800742fc     dJs_LeftHip_src.obj
 0004:00001308       $pdata$output1             0000000180074308     dJs_LeftHip_src.obj
 0004:00001314       $pdata$dJs_LeftKnee_src    0000000180074314     dJs_LeftKnee_src.obj
 0004:00001320       $pdata$output1             0000000180074320     dJs_LeftKnee_src.obj
 0004:0000132c       $pdata$dJs_LeftShin_src    000000018007432c     dJs_LeftShin_src.obj
 0004:00001338       $pdata$output1             0000000180074338     dJs_LeftShin_src.obj
 0004:00001344       $pdata$dJs_LeftThigh_src   0000000180074344     dJs_LeftThigh_src.obj
 0004:00001350       $pdata$output1             0000000180074350     dJs_LeftThigh_src.obj
 0004:0000135c       $pdata$dJs_LeftToe_src     000000018007435c     dJs_LeftToe_src.obj
 0004:00001368       $pdata$output1             0000000180074368     dJs_LeftToe_src.obj
 0004:00001374       $pdata$dJs_RightHip_src    0000000180074374     dJs_RightHip_src.obj
 0004:00001380       $pdata$output1             0000000180074380     dJs_RightHip_src.obj
 0004:0000138c       $pdata$dJs_RightKnee_src   000000018007438c     dJs_RightKnee_src.obj
 0004:00001398       $pdata$output1             0000000180074398     dJs_RightKnee_src.obj
 0004:000013a4       $pdata$dJs_RightShin_src   00000001800743a4     dJs_RightShin_src.obj
 0004:000013b0       $pdata$output1             00000001800743b0     dJs_RightShin_src.obj
 0004:000013bc       $pdata$dJs_RightThigh_src  00000001800743bc     dJs_RightThigh_src.obj
 0004:000013c8       $pdata$output1             00000001800743c8     dJs_RightThigh_src.obj
 0004:000013d4       $pdata$dJs_RightToe_src    00000001800743d4     dJs_RightToe_src.obj
 0004:000013e0       $pdata$output1             00000001800743e0     dJs_RightToe_src.obj
 0004:000013ec       $pdata$dJs_torso_src       00000001800743ec     dJs_torso_src.obj
 0004:000013f8       $pdata$dR_Head_src         00000001800743f8     dR_Head_src.obj
 0004:00001404       $pdata$output1             0000000180074404     dR_Head_src.obj
 0004:00001410       $pdata$dR_LeftHip_src      0000000180074410     dR_LeftHip_src.obj
 0004:0000141c       $pdata$output1             000000018007441c     dR_LeftHip_src.obj
 0004:00001428       $pdata$dR_LeftKnee_src     0000000180074428     dR_LeftKnee_src.obj
 0004:00001434       $pdata$output1             0000000180074434     dR_LeftKnee_src.obj
 0004:00001440       $pdata$dR_LeftShin_src     0000000180074440     dR_LeftShin_src.obj
 0004:0000144c       $pdata$output1             000000018007444c     dR_LeftShin_src.obj
 0004:00001458       $pdata$dR_LeftThigh_src    0000000180074458     dR_LeftThigh_src.obj
 0004:00001464       $pdata$output1             0000000180074464     dR_LeftThigh_src.obj
 0004:00001470       $pdata$dR_LeftToe_src      0000000180074470     dR_LeftToe_src.obj
 0004:0000147c       $pdata$output1             000000018007447c     dR_LeftToe_src.obj
 0004:00001488       $pdata$dR_RightHip_src     0000000180074488     dR_RightHip_src.obj
 0004:00001494       $pdata$output1             0000000180074494     dR_RightHip_src.obj
 0004:000014a0       $pdata$dR_RightKnee_src    00000001800744a0     dR_RightKnee_src.obj
 0004:000014ac       $pdata$output1             00000001800744ac     dR_RightKnee_src.obj
 0004:000014b8       $pdata$dR_RightShin_src    00000001800744b8     dR_RightShin_src.obj
 0004:000014c4       $pdata$output1             00000001800744c4     dR_RightShin_src.obj
 0004:000014d0       $pdata$dR_RightThigh_src   00000001800744d0     dR_RightThigh_src.obj
 0004:000014dc       $pdata$output1             00000001800744dc     dR_RightThigh_src.obj
 0004:000014e8       $pdata$dR_RightToe_src     00000001800744e8     dR_RightToe_src.obj
 0004:000014f4       $pdata$output1             00000001800744f4     dR_RightToe_src.obj
 0004:00001500       $pdata$dR_torso_src        0000000180074500     dR_torso_src.obj
 0004:0000150c       $pdata$output1             000000018007450c     dR_torso_src.obj
 0004:00001518       $pdata$dT_Head_src         0000000180074518     dT_Head_src.obj
 0004:00001524       $pdata$output1             0000000180074524     dT_Head_src.obj
 0004:00001530       $pdata$dT_LeftHip_src      0000000180074530     dT_LeftHip_src.obj
 0004:0000153c       $pdata$output1             000000018007453c     dT_LeftHip_src.obj
 0004:00001548       $pdata$dT_LeftKnee_src     0000000180074548     dT_LeftKnee_src.obj
 0004:00001554       $pdata$output1             0000000180074554     dT_LeftKnee_src.obj
 0004:00001560       $pdata$dT_LeftShin_src     0000000180074560     dT_LeftShin_src.obj
 0004:0000156c       $pdata$output1             000000018007456c     dT_LeftShin_src.obj
 0004:00001578       $pdata$dT_LeftThigh_src    0000000180074578     dT_LeftThigh_src.obj
 0004:00001584       $pdata$output1             0000000180074584     dT_LeftThigh_src.obj
 0004:00001590       $pdata$dT_LeftToe_src      0000000180074590     dT_LeftToe_src.obj
 0004:0000159c       $pdata$output1             000000018007459c     dT_LeftToe_src.obj
 0004:000015a8       $pdata$dT_RightHip_src     00000001800745a8     dT_RightHip_src.obj
 0004:000015b4       $pdata$output1             00000001800745b4     dT_RightHip_src.obj
 0004:000015c0       $pdata$dT_RightKnee_src    00000001800745c0     dT_RightKnee_src.obj
 0004:000015cc       $pdata$output1             00000001800745cc     dT_RightKnee_src.obj
 0004:000015d8       $pdata$dT_RightShin_src    00000001800745d8     dT_RightShin_src.obj
 0004:000015e4       $pdata$output1             00000001800745e4     dT_RightShin_src.obj
 0004:000015f0       $pdata$dT_RightThigh_src   00000001800745f0     dT_RightThigh_src.obj
 0004:000015fc       $pdata$output1             00000001800745fc     dT_RightThigh_src.obj
 0004:00001608       $pdata$dT_RightToe_src     0000000180074608     dT_RightToe_src.obj
 0004:00001614       $pdata$output1             0000000180074614     dT_RightToe_src.obj
 0004:00001620       $pdata$dT_torso_src        0000000180074620     dT_torso_src.obj
 0004:0000162c       $pdata$output1             000000018007462c     dT_torso_src.obj
 0004:00001638       $pdata$Inertia_LeftShin_src 0000000180074638     Inertia_LeftShin_src.obj
 0004:00001644       $pdata$Inertia_LeftThigh_src 0000000180074644     Inertia_LeftThigh_src.obj
 0004:00001650       $pdata$Inertia_RightShin_src 0000000180074650     Inertia_RightShin_src.obj
 0004:0000165c       $pdata$Inertia_RightThigh_src 000000018007465c     Inertia_RightThigh_src.obj
 0004:00001668       $pdata$Inertia_torso_src   0000000180074668     Inertia_torso_src.obj
 0004:00001674       $pdata$Jb_Head_src         0000000180074674     Jb_Head_src.obj
 0004:00001680       $pdata$output1             0000000180074680     Jb_Head_src.obj
 0004:0000168c       $pdata$Jb_LeftHip_src      000000018007468c     Jb_LeftHip_src.obj
 0004:00001698       $pdata$output1             0000000180074698     Jb_LeftHip_src.obj
 0004:000016a4       $pdata$Jb_LeftKnee_src     00000001800746a4     Jb_LeftKnee_src.obj
 0004:000016b0       $pdata$output1             00000001800746b0     Jb_LeftKnee_src.obj
 0004:000016bc       $pdata$Jb_LeftShin_src     00000001800746bc     Jb_LeftShin_src.obj
 0004:000016c8       $pdata$output1             00000001800746c8     Jb_LeftShin_src.obj
 0004:000016d4       $pdata$Jb_LeftThigh_src    00000001800746d4     Jb_LeftThigh_src.obj
 0004:000016e0       $pdata$output1             00000001800746e0     Jb_LeftThigh_src.obj
 0004:000016ec       $pdata$Jb_LeftToe_src      00000001800746ec     Jb_LeftToe_src.obj
 0004:000016f8       $pdata$output1             00000001800746f8     Jb_LeftToe_src.obj
 0004:00001704       $pdata$Jb_RightHip_src     0000000180074704     Jb_RightHip_src.obj
 0004:00001710       $pdata$output1             0000000180074710     Jb_RightHip_src.obj
 0004:0000171c       $pdata$Jb_RightKnee_src    000000018007471c     Jb_RightKnee_src.obj
 0004:00001728       $pdata$output1             0000000180074728     Jb_RightKnee_src.obj
 0004:00001734       $pdata$Jb_RightShin_src    0000000180074734     Jb_RightShin_src.obj
 0004:00001740       $pdata$output1             0000000180074740     Jb_RightShin_src.obj
 0004:0000174c       $pdata$Jb_RightThigh_src   000000018007474c     Jb_RightThigh_src.obj
 0004:00001758       $pdata$output1             0000000180074758     Jb_RightThigh_src.obj
 0004:00001764       $pdata$Jb_RightToe_src     0000000180074764     Jb_RightToe_src.obj
 0004:00001770       $pdata$output1             0000000180074770     Jb_RightToe_src.obj
 0004:0000177c       $pdata$Jb_torso_src        000000018007477c     Jb_torso_src.obj
 0004:00001788       $pdata$output1             0000000180074788     Jb_torso_src.obj
 0004:00001794       $pdata$Jp_Head_src         0000000180074794     Jp_Head_src.obj
 0004:000017a0       $pdata$output1             00000001800747a0     Jp_Head_src.obj
 0004:000017ac       $pdata$Jp_LeftHip_src      00000001800747ac     Jp_LeftHip_src.obj
 0004:000017b8       $pdata$Jp_LeftKnee_src     00000001800747b8     Jp_LeftKnee_src.obj
 0004:000017c4       $pdata$output1             00000001800747c4     Jp_LeftKnee_src.obj
 0004:000017d0       $pdata$Jp_LeftShin_src     00000001800747d0     Jp_LeftShin_src.obj
 0004:000017dc       $pdata$output1             00000001800747dc     Jp_LeftShin_src.obj
 0004:000017e8       $pdata$Jp_LeftThigh_src    00000001800747e8     Jp_LeftThigh_src.obj
 0004:000017f4       $pdata$output1             00000001800747f4     Jp_LeftThigh_src.obj
 0004:00001800       $pdata$Jp_LeftToe_src      0000000180074800     Jp_LeftToe_src.obj
 0004:0000180c       $pdata$output1             000000018007480c     Jp_LeftToe_src.obj
 0004:00001818       $pdata$Jp_RightHip_src     0000000180074818     Jp_RightHip_src.obj
 0004:00001824       $pdata$Jp_RightKnee_src    0000000180074824     Jp_RightKnee_src.obj
 0004:00001830       $pdata$output1             0000000180074830     Jp_RightKnee_src.obj
 0004:0000183c       $pdata$Jp_RightShin_src    000000018007483c     Jp_RightShin_src.obj
 0004:00001848       $pdata$output1             0000000180074848     Jp_RightShin_src.obj
 0004:00001854       $pdata$Jp_RightThigh_src   0000000180074854     Jp_RightThigh_src.obj
 0004:00001860       $pdata$output1             0000000180074860     Jp_RightThigh_src.obj
 0004:0000186c       $pdata$Jp_RightToe_src     000000018007486c     Jp_RightToe_src.obj
 0004:00001878       $pdata$output1             0000000180074878     Jp_RightToe_src.obj
 0004:00001884       $pdata$Jp_torso_src        0000000180074884     Jp_torso_src.obj
 0004:00001890       $pdata$output1             0000000180074890     Jp_torso_src.obj
 0004:0000189c       $pdata$Js_Head_src         000000018007489c     Js_Head_src.obj
 0004:000018a8       $pdata$Js_LeftHip_src      00000001800748a8     Js_LeftHip_src.obj
 0004:000018b4       $pdata$output1             00000001800748b4     Js_LeftHip_src.obj
 0004:000018c0       $pdata$Js_LeftKnee_src     00000001800748c0     Js_LeftKnee_src.obj
 0004:000018cc       $pdata$output1             00000001800748cc     Js_LeftKnee_src.obj
 0004:000018d8       $pdata$Js_LeftShin_src     00000001800748d8     Js_LeftShin_src.obj
 0004:000018e4       $pdata$output1             00000001800748e4     Js_LeftShin_src.obj
 0004:000018f0       $pdata$Js_LeftThigh_src    00000001800748f0     Js_LeftThigh_src.obj
 0004:000018fc       $pdata$output1             00000001800748fc     Js_LeftThigh_src.obj
 0004:00001908       $pdata$Js_LeftToe_src      0000000180074908     Js_LeftToe_src.obj
 0004:00001914       $pdata$output1             0000000180074914     Js_LeftToe_src.obj
 0004:00001920       $pdata$Js_RightHip_src     0000000180074920     Js_RightHip_src.obj
 0004:0000192c       $pdata$output1             000000018007492c     Js_RightHip_src.obj
 0004:00001938       $pdata$Js_RightKnee_src    0000000180074938     Js_RightKnee_src.obj
 0004:00001944       $pdata$output1             0000000180074944     Js_RightKnee_src.obj
 0004:00001950       $pdata$Js_RightShin_src    0000000180074950     Js_RightShin_src.obj
 0004:0000195c       $pdata$output1             000000018007495c     Js_RightShin_src.obj
 0004:00001968       $pdata$Js_RightThigh_src   0000000180074968     Js_RightThigh_src.obj
 0004:00001974       $pdata$output1             0000000180074974     Js_RightThigh_src.obj
 0004:00001980       $pdata$Js_RightToe_src     0000000180074980     Js_RightToe_src.obj
 0004:0000198c       $pdata$output1             000000018007498c     Js_RightToe_src.obj
 0004:00001998       $pdata$Js_torso_src        0000000180074998     Js_torso_src.obj
 0004:000019a4       $pdata$p_Head_src          00000001800749a4     p_Head_src.obj
 0004:000019b0       $pdata$output1             00000001800749b0     p_Head_src.obj
 0004:000019bc       $pdata$p_LeftHip_src       00000001800749bc     p_LeftHip_src.obj
 0004:000019c8       $pdata$p_LeftKnee_src      00000001800749c8     p_LeftKnee_src.obj
 0004:000019d4       $pdata$output1             00000001800749d4     p_LeftKnee_src.obj
 0004:000019e0       $pdata$p_LeftShin_src      00000001800749e0     p_LeftShin_src.obj
 0004:000019ec       $pdata$output1             00000001800749ec     p_LeftShin_src.obj
 0004:000019f8       $pdata$p_LeftThigh_src     00000001800749f8     p_LeftThigh_src.obj
 0004:00001a04       $pdata$output1             0000000180074a04     p_LeftThigh_src.obj
 0004:00001a10       $pdata$p_LeftToe_src       0000000180074a10     p_LeftToe_src.obj
 0004:00001a1c       $pdata$output1             0000000180074a1c     p_LeftToe_src.obj
 0004:00001a28       $pdata$p_RightHip_src      0000000180074a28     p_RightHip_src.obj
 0004:00001a34       $pdata$p_RightKnee_src     0000000180074a34     p_RightKnee_src.obj
 0004:00001a40       $pdata$output1             0000000180074a40     p_RightKnee_src.obj
 0004:00001a4c       $pdata$p_RightShin_src     0000000180074a4c     p_RightShin_src.obj
 0004:00001a58       $pdata$output1             0000000180074a58     p_RightShin_src.obj
 0004:00001a64       $pdata$p_RightThigh_src    0000000180074a64     p_RightThigh_src.obj
 0004:00001a70       $pdata$output1             0000000180074a70     p_RightThigh_src.obj
 0004:00001a7c       $pdata$p_RightToe_src      0000000180074a7c     p_RightToe_src.obj
 0004:00001a88       $pdata$output1             0000000180074a88     p_RightToe_src.obj
 0004:00001a94       $pdata$p_torso_src         0000000180074a94     p_torso_src.obj
 0004:00001aa0       $pdata$output1             0000000180074aa0     p_torso_src.obj
 0004:00001aac       $pdata$R_Head_src          0000000180074aac     R_Head_src.obj
 0004:00001ab8       $pdata$output1             0000000180074ab8     R_Head_src.obj
 0004:00001ac4       $pdata$R_LeftHip_src       0000000180074ac4     R_LeftHip_src.obj
 0004:00001ad0       $pdata$output1             0000000180074ad0     R_LeftHip_src.obj
 0004:00001adc       $pdata$R_LeftKnee_src      0000000180074adc     R_LeftKnee_src.obj
 0004:00001ae8       $pdata$output1             0000000180074ae8     R_LeftKnee_src.obj
 0004:00001af4       $pdata$R_LeftShin_src      0000000180074af4     R_LeftShin_src.obj
 0004:00001b00       $pdata$output1             0000000180074b00     R_LeftShin_src.obj
 0004:00001b0c       $pdata$R_LeftThigh_src     0000000180074b0c     R_LeftThigh_src.obj
 0004:00001b18       $pdata$output1             0000000180074b18     R_LeftThigh_src.obj
 0004:00001b24       $pdata$R_LeftToe_src       0000000180074b24     R_LeftToe_src.obj
 0004:00001b30       $pdata$output1             0000000180074b30     R_LeftToe_src.obj
 0004:00001b3c       $pdata$R_RightHip_src      0000000180074b3c     R_RightHip_src.obj
 0004:00001b48       $pdata$output1             0000000180074b48     R_RightHip_src.obj
 0004:00001b54       $pdata$R_RightKnee_src     0000000180074b54     R_RightKnee_src.obj
 0004:00001b60       $pdata$output1             0000000180074b60     R_RightKnee_src.obj
 0004:00001b6c       $pdata$R_RightShin_src     0000000180074b6c     R_RightShin_src.obj
 0004:00001b78       $pdata$output1             0000000180074b78     R_RightShin_src.obj
 0004:00001b84       $pdata$R_RightThigh_src    0000000180074b84     R_RightThigh_src.obj
 0004:00001b90       $pdata$output1             0000000180074b90     R_RightThigh_src.obj
 0004:00001b9c       $pdata$R_RightToe_src      0000000180074b9c     R_RightToe_src.obj
 0004:00001ba8       $pdata$output1             0000000180074ba8     R_RightToe_src.obj
 0004:00001bb4       $pdata$R_torso_src         0000000180074bb4     R_torso_src.obj
 0004:00001bc0       $pdata$output1             0000000180074bc0     R_torso_src.obj
 0004:00001bcc       $pdata$T_Head_src          0000000180074bcc     T_Head_src.obj
 0004:00001bd8       $pdata$output1             0000000180074bd8     T_Head_src.obj
 0004:00001be4       $pdata$T_LeftHip_src       0000000180074be4     T_LeftHip_src.obj
 0004:00001bf0       $pdata$output1             0000000180074bf0     T_LeftHip_src.obj
 0004:00001bfc       $pdata$T_LeftKnee_src      0000000180074bfc     T_LeftKnee_src.obj
 0004:00001c08       $pdata$output1             0000000180074c08     T_LeftKnee_src.obj
 0004:00001c14       $pdata$T_LeftShin_src      0000000180074c14     T_LeftShin_src.obj
 0004:00001c20       $pdata$output1             0000000180074c20     T_LeftShin_src.obj
 0004:00001c2c       $pdata$T_LeftThigh_src     0000000180074c2c     T_LeftThigh_src.obj
 0004:00001c38       $pdata$output1             0000000180074c38     T_LeftThigh_src.obj
 0004:00001c44       $pdata$T_LeftToe_src       0000000180074c44     T_LeftToe_src.obj
 0004:00001c50       $pdata$output1             0000000180074c50     T_LeftToe_src.obj
 0004:00001c5c       $pdata$T_RightHip_src      0000000180074c5c     T_RightHip_src.obj
 0004:00001c68       $pdata$output1             0000000180074c68     T_RightHip_src.obj
 0004:00001c74       $pdata$T_RightKnee_src     0000000180074c74     T_RightKnee_src.obj
 0004:00001c80       $pdata$output1             0000000180074c80     T_RightKnee_src.obj
 0004:00001c8c       $pdata$T_RightShin_src     0000000180074c8c     T_RightShin_src.obj
 0004:00001c98       $pdata$output1             0000000180074c98     T_RightShin_src.obj
 0004:00001ca4       $pdata$T_RightThigh_src    0000000180074ca4     T_RightThigh_src.obj
 0004:00001cb0       $pdata$output1             0000000180074cb0     T_RightThigh_src.obj
 0004:00001cbc       $pdata$T_RightToe_src      0000000180074cbc     T_RightToe_src.obj
 0004:00001cc8       $pdata$output1             0000000180074cc8     T_RightToe_src.obj
 0004:00001cd4       $pdata$T_torso_src         0000000180074cd4     T_torso_src.obj
 0004:00001ce0       $pdata$output1             0000000180074ce0     T_torso_src.obj
 0004:00001cec       $pdata$__raise_securityfailure 0000000180074cec     MSVCRT:gs_report.obj
 0004:00001cf8       $pdata$__report_gsfailure  0000000180074cf8     MSVCRT:gs_report.obj
 0004:00001d04       $pdata$__report_rangecheckfailure 0000000180074d04     MSVCRT:gs_report.obj
 0004:00001d10       $pdata$__report_securityfailure 0000000180074d10     MSVCRT:gs_report.obj
 0004:00001d1c       $pdata$__report_securityfailureEx 0000000180074d1c     MSVCRT:gs_report.obj
 0004:00001d28       $pdata$capture_current_context 0000000180074d28     MSVCRT:gs_report.obj
 0004:00001d34       $pdata$capture_previous_context 0000000180074d34     MSVCRT:gs_report.obj
 0004:00001d40       $pdata$__GSHandlerCheck    0000000180074d40     MSVCRT:_gshandler_.obj
 0004:00001d4c       $pdata$__GSHandlerCheckCommon 0000000180074d4c     MSVCRT:_gshandler_.obj
 0004:00001d70       $pdata$?dllmain_crt_dispatch@@YAHQEAUHINSTANCE__@@KQEAX@Z 0000000180074d70     MSVCRT:dll_dllmain.obj
 0004:00001d7c       $pdata$?dllmain_crt_process_attach@@YAHQEAUHINSTANCE__@@QEAX@Z 0000000180074d7c     MSVCRT:dll_dllmain.obj
 0004:00001d88       $pdata$?dllmain_crt_process_detach@@YAH_N@Z 0000000180074d88     MSVCRT:dll_dllmain.obj
 0004:00001d94       $pdata$?dllmain_dispatch@@YAHQEAUHINSTANCE__@@KQEAX@Z 0000000180074d94     MSVCRT:dll_dllmain.obj
 0004:00001da0       $pdata$?dllmain_raw@@YAHQEAUHINSTANCE__@@KQEAX@Z 0000000180074da0     MSVCRT:dll_dllmain.obj
 0004:00001dac       $pdata$_DllMainCRTStartup  0000000180074dac     MSVCRT:dll_dllmain.obj
 0004:00001db8       $pdata$?configure_argv@__scrt_narrow_argv_policy@@SAHXZ 0000000180074db8     MSVCRT:utility.obj
 0004:00001dc4       $pdata$__scrt_acquire_startup_lock 0000000180074dc4     MSVCRT:utility.obj
 0004:00001dd0       $pdata$__scrt_dllmain_after_initialize_c 0000000180074dd0     MSVCRT:utility.obj
 0004:00001ddc       $pdata$__scrt_dllmain_before_initialize_c 0000000180074ddc     MSVCRT:utility.obj
 0004:00001de8       $pdata$__scrt_dllmain_crt_thread_attach 0000000180074de8     MSVCRT:utility.obj
 0004:00001df4       $pdata$__scrt_dllmain_crt_thread_detach 0000000180074df4     MSVCRT:utility.obj
 0004:00001e00       $pdata$__scrt_dllmain_exception_filter 0000000180074e00     MSVCRT:utility.obj
 0004:00001e0c       $pdata$__scrt_dllmain_uninitialize_c 0000000180074e0c     MSVCRT:utility.obj
 0004:00001e18       $pdata$__scrt_dllmain_uninitialize_critical 0000000180074e18     MSVCRT:utility.obj
 0004:00001e24       $pdata$__scrt_initialize_crt 0000000180074e24     MSVCRT:utility.obj
 0004:00001e30       $pdata$__scrt_initialize_onexit_tables 0000000180074e30     MSVCRT:utility.obj
 0004:00001e3c       $pdata$__scrt_is_nonwritable_in_current_image 0000000180074e3c     MSVCRT:utility.obj
 0004:00001e48       $pdata$__scrt_release_startup_lock 0000000180074e48     MSVCRT:utility.obj
 0004:00001e54       $pdata$__scrt_uninitialize_crt 0000000180074e54     MSVCRT:utility.obj
 0004:00001e60       $pdata$_onexit             0000000180074e60     MSVCRT:utility.obj
 0004:00001e6c       $pdata$atexit              0000000180074e6c     MSVCRT:utility.obj
 0004:00001e78       $pdata$__security_init_cookie 0000000180074e78     MSVCRT:gs_support.obj
 0004:00001e84       $pdata$DllMain             0000000180074e84     MSVCRT:dll_dllmain_stub.obj
 0004:00001e90       $pdata$__scrt_initialize_default_local_stdio_options 0000000180074e90     MSVCRT:default_local_stdio_options.obj
 0004:00001e9c       $pdata$__scrt_fastfail     0000000180074e9c     MSVCRT:utility_desktop.obj
 0004:00001ea8       $pdata$__scrt_get_show_window_mode 0000000180074ea8     MSVCRT:utility_desktop.obj
 0004:00001eb4       $pdata$__scrt_is_managed_app 0000000180074eb4     MSVCRT:utility_desktop.obj
 0004:00001ec0       $pdata$__scrt_unhandled_exception_filter 0000000180074ec0     MSVCRT:utility_desktop.obj
 0004:00001ecc       $pdata$_RTC_Initialize     0000000180074ecc     MSVCRT:_initsect_.obj
 0004:00001ed8       $pdata$_RTC_Terminate      0000000180074ed8     MSVCRT:_initsect_.obj
 0004:00001ee4       $pdata$__isa_available_init 0000000180074ee4     MSVCRT:_cpu_disp_.obj
 0004:00001efc       $pdata$?fin$0@?0??dllmain_crt_process_attach@@YAHQEAUHINSTANCE__@@QEAX@Z@4HA 0000000180074efc     MSVCRT:dll_dllmain.obj
 0004:00001f08       $pdata$?fin$0@?0??dllmain_crt_process_detach@@YAH_N@Z@4HA 0000000180074f08     MSVCRT:dll_dllmain.obj
 0004:00001f14       $pdata$?filt$0@?0??dllmain_dispatch@@YAHQEAUHINSTANCE__@@KQEAX@Z@4HA 0000000180074f14     MSVCRT:dll_dllmain.obj
 0004:00001f20       $pdata$__scrt_is_nonwritable_in_current_image$filt$0 0000000180074f20     MSVCRT:utility.obj
 0005:00000000       __guard_fids_?dllmain_crt_process_attach@@YAHQEAUHINSTANCE__@@QEAX@Z 0000000180075000     MSVCRT:dll_dllmain.obj
 0005:00000008       __guard_fids_?dllmain_dispatch@@YAHQEAUHINSTANCE__@@KQEAX@Z 0000000180075008     MSVCRT:dll_dllmain.obj
 0005:0000000c       __guard_fids___scrt_set_unhandled_exception_filter 000000018007500c     MSVCRT:utility_desktop.obj
 0005:00000010       __guard_fids__             0000000180075010     MSVCRT:guard_support.obj
 0005:00000014       __guard_fids__guard_icall_checks_enforced 0000000180075014     MSVCRT:guard_support.obj
